ARM GAS  C:\Users\Qinh\AppData\Local\Temp\ccbmCJ4b.s 			page 1


   1              		.syntax unified
   2              		.cpu cortex-m0plus
   3              		.fpu softvfp
   4              		.eabi_attribute 20, 1
   5              		.eabi_attribute 21, 1
   6              		.eabi_attribute 23, 3
   7              		.eabi_attribute 24, 1
   8              		.eabi_attribute 25, 1
   9              		.eabi_attribute 26, 1
  10              		.eabi_attribute 30, 1
  11              		.eabi_attribute 34, 0
  12              		.eabi_attribute 18, 4
  13              		.thumb
  14              		.syntax unified
  15              		.file	"main.c"
  16              		.text
  17              	.Ltext0:
  18              		.cfi_sections	.debug_frame
  19              		.section	.text.EnterDeepSleepLowPowerMode,"ax",%progbits
  20              		.align	2
  21              		.global	EnterDeepSleepLowPowerMode
  22              		.code	16
  23              		.thumb_func
  24              		.type	EnterDeepSleepLowPowerMode, %function
  25              	EnterDeepSleepLowPowerMode:
  26              	.LFB34:
  27              		.file 1 "main.c"
   1:main.c        **** /*****************************************************************************
   2:main.c        **** * File Name: main.c
   3:main.c        **** *
   4:main.c        **** * Version: 1.10
   5:main.c        **** *
   6:main.c        **** * Description: This code example demonstrates how to implement a low-power 
   7:main.c        **** *              CapSense button with an average current consumption of 6uA
   8:main.c        **** *              per button. 
   9:main.c        **** 
  10:main.c        **** * Related Document: CE210291.pdf 
  11:main.c        **** *
  12:main.c        **** * Hardware Dependency: See code example document CE210291
  13:main.c        **** *
  14:main.c        **** ******************************************************************************
  15:main.c        **** * Copyright (2016), Cypress Semiconductor Corporation.
  16:main.c        **** ******************************************************************************
  17:main.c        **** * This software is owned by Cypress Semiconductor Corporation (Cypress) and is
  18:main.c        **** * protected by and subject to worldwide patent protection (United States and
  19:main.c        **** * foreign), United States copyright laws and international treaty provisions.
  20:main.c        **** * Cypress hereby grants to licensee a personal, non-exclusive, non-transferable
  21:main.c        **** * license to copy, use, modify, create derivative works of, and compile the
  22:main.c        **** * Cypress Source Code and derivative works for the sole purpose of creating
  23:main.c        **** * custom software in support of licensee product to be used only in conjunction
  24:main.c        **** * with a Cypress integrated circuit as specified in the applicable agreement.
  25:main.c        **** * Any reproduction, modification, translation, compilation, or representation of
  26:main.c        **** * this software except as specified above is prohibited without the express
  27:main.c        **** * written permission of Cypress.
  28:main.c        **** *
  29:main.c        **** * Disclaimer: CYPRESS MAKES NO WARRANTY OF ANY KIND, EXPRESS OR IMPLIED, WITH
  30:main.c        **** * REGARD TO THIS MATERIAL, INCLUDING, BUT NOT LIMITED TO, THE IMPLIED
ARM GAS  C:\Users\Qinh\AppData\Local\Temp\ccbmCJ4b.s 			page 2


  31:main.c        **** * WARRANTIES OF MERCHANTABILITY AND FITNESS FOR A PARTICULAR PURPOSE.
  32:main.c        **** * Cypress reserves the right to make changes without further notice to the
  33:main.c        **** * materials described herein. Cypress does not assume any liability arising out
  34:main.c        **** * of the application or use of any product or circuit described herein. Cypress
  35:main.c        **** * does not authorize its products for use as critical components in life-support
  36:main.c        **** * systems where a malfunction or failure may reasonably be expected to result in
  37:main.c        **** * significant injury to the user. The inclusion of Cypress' product in a life-
  38:main.c        **** * support systems application implies that the manufacturer assumes all risk of
  39:main.c        **** * such use and in doing so indemnifies Cypress against all charges. Use may be
  40:main.c        **** * limited by and subject to the applicable Cypress software license agreement.
  41:main.c        **** *****************************************************************************/
  42:main.c        **** 
  43:main.c        **** /*******************************************************************************
  44:main.c        **** *   Included Headers
  45:main.c        **** *******************************************************************************/
  46:main.c        **** #include "project.h"
  47:main.c        **** 
  48:main.c        **** /*****************************************************************************
  49:main.c        **** * MACRO Definitions
  50:main.c        **** *****************************************************************************/   
  51:main.c        **** 
  52:main.c        **** /* Refresh interval in milliseconds for fast scan mode */
  53:main.c        **** #define LOOP_TIME_FASTSCANMODE          (30u)
  54:main.c        **** 
  55:main.c        **** /* Refresh interval in milliseconds for slow scan mode */
  56:main.c        **** #define LOOP_TIME_SLOWSCANMODE          (200u)
  57:main.c        **** 
  58:main.c        **** #define MILLI_SEC_TO_MICRO_SEC          (1000u)
  59:main.c        **** 
  60:main.c        **** #if (!CY_IP_SRSSV2)
  61:main.c        ****     /* ILO frequency for PSoC 4 S-Series device */
  62:main.c        ****     #define ILO_CLOCK_FACTOR            (40u)
  63:main.c        **** #else
  64:main.c        ****     /* ILO frequency for PSoC 4 device */
  65:main.c        ****     #define ILO_CLOCK_FACTOR            (32u)
  66:main.c        **** #endif
  67:main.c        **** 
  68:main.c        **** /* Refresh rate control parameters */    
  69:main.c        **** #define WDT_TIMEOUT_FAST_SCAN           (ILO_CLOCK_FACTOR * LOOP_TIME_FASTSCANMODE)   
  70:main.c        **** #define WDT_TIMEOUT_SLOW_SCAN           (ILO_CLOCK_FACTOR * LOOP_TIME_SLOWSCANMODE)
  71:main.c        **** 
  72:main.c        **** /* Macro to enable WDT */
  73:main.c        **** #define ENABLE_WDT                      (0x01u)
  74:main.c        **** 
  75:main.c        **** /* Macro to disable/enable tuner to update sensor parameters - 0: disable 1: enable */
  76:main.c        **** #define TUNER_UPDATE_ENABLE             (0u)
  77:main.c        **** 
  78:main.c        **** /* This timeout is for changing the refresh interval from fast to slow rate
  79:main.c        **** *  The timeout value is WDT_TIMEOUT_FAST_SCAN * SCANMODE_TIMEOUT_VALUE
  80:main.c        **** */
  81:main.c        **** #define SCANMODE_TIMEOUT_VALUE          (150u)  
  82:main.c        **** 
  83:main.c        **** /* Reset value of softCounter */    
  84:main.c        **** #define RESET                           (0u)
  85:main.c        **** 
  86:main.c        **** /* Boolean constants */
  87:main.c        **** #define TRUE                            (1u)
ARM GAS  C:\Users\Qinh\AppData\Local\Temp\ccbmCJ4b.s 			page 3


  88:main.c        **** #define FALSE                           (0u)
  89:main.c        **** 
  90:main.c        **** /* Finite state machine states for device operating states */
  91:main.c        **** typedef enum
  92:main.c        **** {
  93:main.c        ****     SENSOR_SCAN = 0x01u, /* Sensor is scanned in this state */
  94:main.c        ****     WAIT_FOR_SCAN_COMPLETE = 0x02u, /* CPU is put to sleep in this state */
  95:main.c        ****     PROCESS_DATA = 0x03u, /* Sensor data is processed */
  96:main.c        ****     SLEEP = 0x04u /* Device is put to deep sleep */
  97:main.c        **** } DEVICE_STATE;
  98:main.c        **** 
  99:main.c        **** typedef union{
 100:main.c        ****     float raw_data_fl;
 101:main.c        ****     uint8_t raw_data_u8[4];
 102:main.c        **** }vofa;
 103:main.c        **** 
 104:main.c        **** vofa vofa1;
 105:main.c        **** 
 106:main.c        **** typedef union{
 107:main.c        **** 	uint8_t data[70];
 108:main.c        **** 	struct{
 109:main.c        **** 		uint8_t syn[2];
 110:main.c        **** 		uint16_t channel_raw[34];
 111:main.c        **** 	};
 112:main.c        **** }packet_capsense_t;
 113:main.c        **** 
 114:main.c        **** packet_capsense_t Touch;
 115:main.c        **** 
 116:main.c        **** /* Firmware implements two refresh rates for reducing average power consumption */
 117:main.c        **** typedef enum
 118:main.c        **** {
 119:main.c        ****     SLOW_SCAN_MODE = 0u,
 120:main.c        ****     FAST_SCAN_MODE = 1u
 121:main.c        **** } SCAN_MODE;
 122:main.c        **** 
 123:main.c        **** /* Variable to store interrupt state */
 124:main.c        **** uint32 interruptState = 0u;
 125:main.c        **** 
 126:main.c        **** /* Compensated Watchdog match value in fast scan mode */
 127:main.c        **** uint32 wdtMatchValFastMode = 0u;
 128:main.c        **** 
 129:main.c        **** /* Compensated Watchdog match value in slow scan mode */
 130:main.c        **** uint32 wdtMatchValSlowMode = 0u;
 131:main.c        **** 
 132:main.c        **** /* Variable to check the WDT interrupt state */
 133:main.c        **** volatile uint8 wdtInterruptOccured = FALSE;
 134:main.c        **** 
 135:main.c        **** /* Contains watchdog match value to generate period interrupt */
 136:main.c        **** volatile uint32 watchdogMatchValue = WDT_TIMEOUT_FAST_SCAN;
 137:main.c        **** 
 138:main.c        **** /* API to prepare the device for deep sleep */
 139:main.c        **** void EnterDeepSleepLowPowerMode(void);
 140:main.c        **** 
 141:main.c        **** /* API to configure the WDT timer for controlling scan intervals */
 142:main.c        **** void WDT_Start(void);
 143:main.c        **** 
 144:main.c        **** /* API to get WDT matchvalue to generate precise scan intervals */
ARM GAS  C:\Users\Qinh\AppData\Local\Temp\ccbmCJ4b.s 			page 4


 145:main.c        **** void CalibrateWdtMatchValue(void);
 146:main.c        **** 
 147:main.c        **** uint8_t resolution_zoom_map[34];
 148:main.c        **** 
 149:main.c        **** /*******************************************************************************
 150:main.c        **** * Function Name: main
 151:main.c        **** ********************************************************************************
 152:main.c        **** *
 153:main.c        **** * Summary:
 154:main.c        **** *  main() performs the following functions:
 155:main.c        **** *  1. Initializes the CapSense and SCB blocks.
 156:main.c        **** *  2. Scans button sensor at either fast refresh rate or slow refresh rate.
 157:main.c        **** *
 158:main.c        **** *******************************************************************************/
 159:main.c        **** int main()
 160:main.c        **** {   
 161:main.c        ****     /* Variable to hold the current device state 
 162:main.c        ****     *  State machine starts with sensor scan state after power-up
 163:main.c        ****     */
 164:main.c        ****     DEVICE_STATE currentState = SENSOR_SCAN; 
 165:main.c        ****     
 166:main.c        ****     /* This variable is used to indicate the current power mode */
 167:main.c        ****     SCAN_MODE deviceScanMode = FAST_SCAN_MODE;
 168:main.c        ****     
 169:main.c        ****     /* This variable is used to implement a software counter. If the value 
 170:main.c        ****     *  of this counter is greater than SCANMODE_TIMEOUT_VALUE, it indicates that the button sensor 
 171:main.c        ****     *  was inactive for more than 3s. 
 172:main.c        ****     */
 173:main.c        ****     uint16 softCounter = RESET;
 174:main.c        ****     
 175:main.c        ****     /* Enable global interrupts for CapSense operation */
 176:main.c        ****     CyGlobalIntEnable;
 177:main.c        ****     UART_1_Start();
 178:main.c        **** 
 179:main.c        ****     /* Start CapSense block - Initializes CapSense data structure and 
 180:main.c        ****      * performs first scan of all widgets/sensors to set up sensors
 181:main.c        ****      * baselines 
 182:main.c        ****      */
 183:main.c        ****     CapSense_Start();
 184:main.c        **** 
 185:main.c        ****     /* Configure button sensor parameters and connect it to AMUXBUS */
 186:main.c        ****     
 187:main.c        ****    // CapSense_CSDSetupWidgetExt(CapSense_BUTTON2_WDGT_ID, CapSense_BUTTON2_SNS0_ID);
 188:main.c        ****    
 189:main.c        ****     /* Watchdog is used to control the loop time in this project and watchdog
 190:main.c        ****     *  is set to generate interrupt at every LOOP_TIME_FASTSCANMODE in fast scan mode  
 191:main.c        ****     *  and at LOOP_TIME_SLOWSCANMODE in slow scan mode
 192:main.c        ****     */
 193:main.c        ****     WDT_Start();
 194:main.c        ****     resolution_zoom_map[0] = 16 - CapSense_BUTTON0_RESOLUTION_VALUE;
 195:main.c        ****     resolution_zoom_map[1] = 16 - CapSense_BUTTON1_RESOLUTION_VALUE;
 196:main.c        ****     resolution_zoom_map[2] = 16 - CapSense_BUTTON2_RESOLUTION_VALUE;
 197:main.c        ****     resolution_zoom_map[3] = 16 - CapSense_BUTTON3_RESOLUTION_VALUE;
 198:main.c        ****     resolution_zoom_map[4] = 16 - CapSense_BUTTON4_RESOLUTION_VALUE;
 199:main.c        ****     resolution_zoom_map[5] = 16 - CapSense_BUTTON5_RESOLUTION_VALUE;
 200:main.c        ****     resolution_zoom_map[6] = 16 - CapSense_BUTTON6_RESOLUTION_VALUE;
 201:main.c        ****     resolution_zoom_map[7] = 16 - CapSense_BUTTON7_RESOLUTION_VALUE;
ARM GAS  C:\Users\Qinh\AppData\Local\Temp\ccbmCJ4b.s 			page 5


 202:main.c        ****     resolution_zoom_map[8] = 16 - CapSense_BUTTON8_RESOLUTION_VALUE;
 203:main.c        ****     resolution_zoom_map[9] = 16 - CapSense_BUTTON9_RESOLUTION_VALUE;
 204:main.c        ****     resolution_zoom_map[10] = 16 - CapSense_BUTTON10_RESOLUTION_VALUE;
 205:main.c        ****     resolution_zoom_map[11] = 16 - CapSense_BUTTON11_RESOLUTION_VALUE;
 206:main.c        ****     resolution_zoom_map[12] = 16 - CapSense_BUTTON12_RESOLUTION_VALUE;
 207:main.c        ****     resolution_zoom_map[13] = 16 - CapSense_BUTTON13_RESOLUTION_VALUE;
 208:main.c        ****     resolution_zoom_map[14] = 16 - CapSense_BUTTON14_RESOLUTION_VALUE;
 209:main.c        ****     resolution_zoom_map[15] = 16 - CapSense_BUTTON15_RESOLUTION_VALUE;
 210:main.c        ****     resolution_zoom_map[16] = 16 - CapSense_BUTTON16_RESOLUTION_VALUE;
 211:main.c        ****     resolution_zoom_map[17] = 16 - CapSense_BUTTON17_RESOLUTION_VALUE;
 212:main.c        ****     resolution_zoom_map[18] = 16 - CapSense_BUTTON18_RESOLUTION_VALUE;
 213:main.c        ****     resolution_zoom_map[19] = 16 - CapSense_BUTTON19_RESOLUTION_VALUE;
 214:main.c        ****     resolution_zoom_map[20] = 16 - CapSense_BUTTON20_RESOLUTION_VALUE;
 215:main.c        ****     resolution_zoom_map[21] = 16 - CapSense_BUTTON21_RESOLUTION_VALUE;
 216:main.c        ****     resolution_zoom_map[22] = 16 - CapSense_BUTTON22_RESOLUTION_VALUE;
 217:main.c        ****     resolution_zoom_map[23] = 16 - CapSense_BUTTON23_RESOLUTION_VALUE;
 218:main.c        ****     resolution_zoom_map[24] = 16 - CapSense_BUTTON24_RESOLUTION_VALUE;
 219:main.c        ****     resolution_zoom_map[25] = 16 - CapSense_BUTTON25_RESOLUTION_VALUE;
 220:main.c        ****     resolution_zoom_map[26] = 16 - CapSense_BUTTON26_RESOLUTION_VALUE;
 221:main.c        ****     resolution_zoom_map[27] = 16 - CapSense_BUTTON27_RESOLUTION_VALUE;
 222:main.c        ****     resolution_zoom_map[28] = 16 - CapSense_BUTTON28_RESOLUTION_VALUE;
 223:main.c        ****     resolution_zoom_map[29] = 16 - CapSense_BUTTON29_RESOLUTION_VALUE;
 224:main.c        ****     resolution_zoom_map[30] = 16 - CapSense_BUTTON30_RESOLUTION_VALUE;
 225:main.c        ****     resolution_zoom_map[31] = 16 - CapSense_BUTTON31_RESOLUTION_VALUE;
 226:main.c        ****     resolution_zoom_map[32] = 16 - CapSense_BUTTON32_RESOLUTION_VALUE;
 227:main.c        ****     resolution_zoom_map[33] = 16 - CapSense_BUTTON33_RESOLUTION_VALUE;
 228:main.c        ****     for(;;)
 229:main.c        ****     {
 230:main.c        ****         /* Switch between sensor-scan -> wait-for-scan -> process -> sleep states */
 231:main.c        ****         switch(currentState)
 232:main.c        ****         {
 233:main.c        ****             case SENSOR_SCAN:
 234:main.c        ****                 /* Initiate new scan only if the CapSense hardware is idle */
 235:main.c        ****                 if(CapSense_NOT_BUSY == CapSense_IsBusy())
 236:main.c        ****                 {
 237:main.c        ****                     /* Update CapSense parameters set via CapSense tuner before the 
 238:main.c        ****                     *  beginning of CapSense scan. This check if required if we are using 
 239:main.c        ****                     *  CapSense Extension (Ext) APIs in the project.
 240:main.c        ****                     */
 241:main.c        ****                     #if (TUNER_UPDATE_ENABLE)
 242:main.c        ****                         if(CapSense_STATUS_RESTART_DONE == CapSense_RunTuner())
 243:main.c        ****                         {
 244:main.c        ****                             /* Set up sensor */
 245:main.c        ****                             CapSense_CSDSetupWidgetExt(CapSense_BUTTON0_WDGT_ID, CapSense_BUTTON0_S
 246:main.c        ****                            
 247:main.c        ****                            
 248:main.c        ****                         }
 249:main.c        ****                     #endif
 250:main.c        ****                     
 251:main.c        ****                     /* Scan widget configured by CSDSetupWidgetExt API */
 252:main.c        ****                     CapSense_CSDSetupWidgetExt(CapSense_BUTTON0_WDGT_ID, CapSense_BUTTON0_SNS0_ID);
 253:main.c        ****                     CapSense_CSDScanExt();
 254:main.c        ****                     while(CapSense_IsBusy());
 255:main.c        ****                     CapSense_CSDSetupWidgetExt(CapSense_BUTTON1_WDGT_ID, CapSense_BUTTON1_SNS0_ID);
 256:main.c        ****                     CapSense_CSDScanExt();
 257:main.c        ****                     while(CapSense_IsBusy());
 258:main.c        ****                     CapSense_CSDSetupWidgetExt(CapSense_BUTTON2_WDGT_ID, CapSense_BUTTON2_SNS0_ID);
ARM GAS  C:\Users\Qinh\AppData\Local\Temp\ccbmCJ4b.s 			page 6


 259:main.c        ****                     CapSense_CSDScanExt();
 260:main.c        ****                     while(CapSense_IsBusy());
 261:main.c        ****                     CapSense_CSDSetupWidgetExt(CapSense_BUTTON3_WDGT_ID, CapSense_BUTTON3_SNS0_ID);
 262:main.c        ****                     CapSense_CSDScanExt();
 263:main.c        ****                     while(CapSense_IsBusy());
 264:main.c        ****                     CapSense_CSDSetupWidgetExt(CapSense_BUTTON4_WDGT_ID, CapSense_BUTTON4_SNS0_ID);
 265:main.c        ****                     CapSense_CSDScanExt();
 266:main.c        ****                     while(CapSense_IsBusy());
 267:main.c        ****                     CapSense_CSDSetupWidgetExt(CapSense_BUTTON5_WDGT_ID, CapSense_BUTTON5_SNS0_ID);
 268:main.c        ****                     CapSense_CSDScanExt();
 269:main.c        ****                     while(CapSense_IsBusy());
 270:main.c        ****                     CapSense_CSDSetupWidgetExt(CapSense_BUTTON6_WDGT_ID, CapSense_BUTTON6_SNS0_ID);
 271:main.c        ****                     CapSense_CSDScanExt();
 272:main.c        ****                     while(CapSense_IsBusy());
 273:main.c        ****                     CapSense_CSDSetupWidgetExt(CapSense_BUTTON7_WDGT_ID, CapSense_BUTTON7_SNS0_ID);
 274:main.c        ****                     CapSense_CSDScanExt();
 275:main.c        ****                     while(CapSense_IsBusy());
 276:main.c        ****                     CapSense_CSDSetupWidgetExt(CapSense_BUTTON8_WDGT_ID, CapSense_BUTTON8_SNS0_ID);
 277:main.c        ****                     CapSense_CSDScanExt();
 278:main.c        ****                     while(CapSense_IsBusy());
 279:main.c        ****                     CapSense_CSDSetupWidgetExt(CapSense_BUTTON9_WDGT_ID, CapSense_BUTTON9_SNS0_ID);
 280:main.c        ****                     CapSense_CSDScanExt();
 281:main.c        ****                     while(CapSense_IsBusy());
 282:main.c        ****                     CapSense_CSDSetupWidgetExt(CapSense_BUTTON10_WDGT_ID, CapSense_BUTTON10_SNS0_ID
 283:main.c        ****                     CapSense_CSDScanExt();
 284:main.c        ****                     while(CapSense_IsBusy());
 285:main.c        ****                     CapSense_CSDSetupWidgetExt(CapSense_BUTTON11_WDGT_ID, CapSense_BUTTON11_SNS0_ID
 286:main.c        ****                     CapSense_CSDScanExt();
 287:main.c        ****                     while(CapSense_IsBusy());
 288:main.c        ****                     CapSense_CSDSetupWidgetExt(CapSense_BUTTON12_WDGT_ID, CapSense_BUTTON12_SNS0_ID
 289:main.c        ****                     CapSense_CSDScanExt();
 290:main.c        ****                     while(CapSense_IsBusy());
 291:main.c        ****                     CapSense_CSDSetupWidgetExt(CapSense_BUTTON13_WDGT_ID, CapSense_BUTTON13_SNS0_ID
 292:main.c        ****                     CapSense_CSDScanExt();
 293:main.c        ****                     while(CapSense_IsBusy());
 294:main.c        ****                     CapSense_CSDSetupWidgetExt(CapSense_BUTTON14_WDGT_ID, CapSense_BUTTON14_SNS0_ID
 295:main.c        ****                     CapSense_CSDScanExt();
 296:main.c        ****                     while(CapSense_IsBusy());
 297:main.c        ****                     CapSense_CSDSetupWidgetExt(CapSense_BUTTON15_WDGT_ID, CapSense_BUTTON15_SNS0_ID
 298:main.c        ****                     CapSense_CSDScanExt();
 299:main.c        ****                     while(CapSense_IsBusy());
 300:main.c        ****                     CapSense_CSDSetupWidgetExt(CapSense_BUTTON16_WDGT_ID, CapSense_BUTTON16_SNS0_ID
 301:main.c        ****                     CapSense_CSDScanExt();
 302:main.c        ****                     while(CapSense_IsBusy());
 303:main.c        ****                     CapSense_CSDSetupWidgetExt(CapSense_BUTTON17_WDGT_ID, CapSense_BUTTON17_SNS0_ID
 304:main.c        ****                     CapSense_CSDScanExt();
 305:main.c        ****                     while(CapSense_IsBusy());
 306:main.c        ****                     CapSense_CSDSetupWidgetExt(CapSense_BUTTON18_WDGT_ID, CapSense_BUTTON18_SNS0_ID
 307:main.c        ****                     CapSense_CSDScanExt();
 308:main.c        ****                     while(CapSense_IsBusy());
 309:main.c        ****                     CapSense_CSDSetupWidgetExt(CapSense_BUTTON19_WDGT_ID, CapSense_BUTTON19_SNS0_ID
 310:main.c        ****                     CapSense_CSDScanExt();
 311:main.c        ****                     while(CapSense_IsBusy());
 312:main.c        ****                     CapSense_CSDSetupWidgetExt(CapSense_BUTTON20_WDGT_ID, CapSense_BUTTON20_SNS0_ID
 313:main.c        ****                     CapSense_CSDScanExt();
 314:main.c        ****                     while(CapSense_IsBusy());
 315:main.c        ****                     CapSense_CSDSetupWidgetExt(CapSense_BUTTON21_WDGT_ID, CapSense_BUTTON21_SNS0_ID
ARM GAS  C:\Users\Qinh\AppData\Local\Temp\ccbmCJ4b.s 			page 7


 316:main.c        ****                     CapSense_CSDScanExt();
 317:main.c        ****                     while(CapSense_IsBusy());
 318:main.c        ****                     CapSense_CSDSetupWidgetExt(CapSense_BUTTON22_WDGT_ID, CapSense_BUTTON22_SNS0_ID
 319:main.c        ****                     CapSense_CSDScanExt();
 320:main.c        ****                     while(CapSense_IsBusy());
 321:main.c        ****                     CapSense_CSDSetupWidgetExt(CapSense_BUTTON23_WDGT_ID, CapSense_BUTTON23_SNS0_ID
 322:main.c        ****                     CapSense_CSDScanExt();
 323:main.c        ****                     while(CapSense_IsBusy());
 324:main.c        ****                     CapSense_CSDSetupWidgetExt(CapSense_BUTTON24_WDGT_ID, CapSense_BUTTON24_SNS0_ID
 325:main.c        ****                     CapSense_CSDScanExt();
 326:main.c        ****                     while(CapSense_IsBusy());
 327:main.c        ****                     CapSense_CSDSetupWidgetExt(CapSense_BUTTON25_WDGT_ID, CapSense_BUTTON25_SNS0_ID
 328:main.c        ****                     CapSense_CSDScanExt();
 329:main.c        ****                     while(CapSense_IsBusy());
 330:main.c        ****                     CapSense_CSDSetupWidgetExt(CapSense_BUTTON26_WDGT_ID, CapSense_BUTTON26_SNS0_ID
 331:main.c        ****                     CapSense_CSDScanExt();
 332:main.c        ****                     while(CapSense_IsBusy());
 333:main.c        ****                     CapSense_CSDSetupWidgetExt(CapSense_BUTTON27_WDGT_ID, CapSense_BUTTON27_SNS0_ID
 334:main.c        ****                     CapSense_CSDScanExt();
 335:main.c        ****                     while(CapSense_IsBusy());
 336:main.c        ****                     CapSense_CSDSetupWidgetExt(CapSense_BUTTON28_WDGT_ID, CapSense_BUTTON28_SNS0_ID
 337:main.c        ****                     CapSense_CSDScanExt();
 338:main.c        ****                     while(CapSense_IsBusy());
 339:main.c        ****                     CapSense_CSDSetupWidgetExt(CapSense_BUTTON29_WDGT_ID, CapSense_BUTTON29_SNS0_ID
 340:main.c        ****                     CapSense_CSDScanExt();
 341:main.c        ****                     while(CapSense_IsBusy());
 342:main.c        ****                     CapSense_CSDSetupWidgetExt(CapSense_BUTTON30_WDGT_ID, CapSense_BUTTON30_SNS0_ID
 343:main.c        ****                     CapSense_CSDScanExt();
 344:main.c        ****                     while(CapSense_IsBusy());
 345:main.c        ****                     CapSense_CSDSetupWidgetExt(CapSense_BUTTON31_WDGT_ID, CapSense_BUTTON31_SNS0_ID
 346:main.c        ****                     CapSense_CSDScanExt();
 347:main.c        ****                     while(CapSense_IsBusy());
 348:main.c        ****                     CapSense_CSDSetupWidgetExt(CapSense_BUTTON32_WDGT_ID, CapSense_BUTTON31_SNS0_ID
 349:main.c        ****                     CapSense_CSDScanExt();
 350:main.c        ****                     while(CapSense_IsBusy());
 351:main.c        ****                     CapSense_CSDSetupWidgetExt(CapSense_BUTTON33_WDGT_ID, CapSense_BUTTON31_SNS0_ID
 352:main.c        ****                     CapSense_CSDScanExt();
 353:main.c        **** 
 354:main.c        ****                     
 355:main.c        ****                     /* Put CPU to sleep while sensor scanning is in progress */
 356:main.c        ****                     currentState = WAIT_FOR_SCAN_COMPLETE;       
 357:main.c        ****                 }
 358:main.c        ****                 break;
 359:main.c        **** 
 360:main.c        ****             case WAIT_FOR_SCAN_COMPLETE:
 361:main.c        ****                 /* Device is in CPU Sleep until CapSense scanning is complete or
 362:main.c        ****                 *  device is woken-up by either CapSense interrupt or I2C interrupt 
 363:main.c        ****                 */
 364:main.c        ****                 /* Disable interrupts, so that ISR is not serviced while
 365:main.c        ****                 *  checking for CapSense scan status.
 366:main.c        ****                 */
 367:main.c        ****                 interruptState = CyEnterCriticalSection();
 368:main.c        ****                 
 369:main.c        ****                 /* Check if CapSense scanning is complete */
 370:main.c        ****                 if(CapSense_NOT_BUSY != CapSense_IsBusy())
 371:main.c        ****                 {
 372:main.c        ****                     /* If CapSense scanning is in progress, put CPU to sleep */
ARM GAS  C:\Users\Qinh\AppData\Local\Temp\ccbmCJ4b.s 			page 8


 373:main.c        ****                     CySysPmSleep();
 374:main.c        ****                 }
 375:main.c        ****                 /* If CapSense scanning is complete, process the CapSense data */
 376:main.c        ****                 else
 377:main.c        ****                 {
 378:main.c        ****                     currentState = PROCESS_DATA;
 379:main.c        ****                 }
 380:main.c        ****                 /* Enable interrupts for servicing ISR */
 381:main.c        ****                 CyExitCriticalSection(interruptState);
 382:main.c        ****                 break;
 383:main.c        ****             
 384:main.c        ****             case PROCESS_DATA:
 385:main.c        ****                 
 386:main.c        ****                 /* Set next state to SLEEP */
 387:main.c        ****                 currentState = SLEEP;
 388:main.c        ****                 
 389:main.c        ****                 /* process button widget */
 390:main.c        ****                 //CapSense_ProcessWidget();
 391:main.c        ****             CapSense_ProcessWidget(CapSense_BUTTON0_WDGT_ID);
 392:main.c        ****             CapSense_ProcessWidget(CapSense_BUTTON1_WDGT_ID);
 393:main.c        ****             CapSense_ProcessWidget(CapSense_BUTTON2_WDGT_ID);
 394:main.c        ****             CapSense_ProcessWidget(CapSense_BUTTON3_WDGT_ID);
 395:main.c        ****             CapSense_ProcessWidget(CapSense_BUTTON4_WDGT_ID);
 396:main.c        ****             CapSense_ProcessWidget(CapSense_BUTTON5_WDGT_ID);
 397:main.c        ****             CapSense_ProcessWidget(CapSense_BUTTON6_WDGT_ID);
 398:main.c        ****             CapSense_ProcessWidget(CapSense_BUTTON7_WDGT_ID);
 399:main.c        ****             CapSense_ProcessWidget(CapSense_BUTTON8_WDGT_ID);
 400:main.c        ****             CapSense_ProcessWidget(CapSense_BUTTON9_WDGT_ID);
 401:main.c        ****             CapSense_ProcessWidget(CapSense_BUTTON10_WDGT_ID);
 402:main.c        ****             CapSense_ProcessWidget(CapSense_BUTTON11_WDGT_ID);
 403:main.c        ****             CapSense_ProcessWidget(CapSense_BUTTON12_WDGT_ID);
 404:main.c        ****             CapSense_ProcessWidget(CapSense_BUTTON13_WDGT_ID);
 405:main.c        ****             CapSense_ProcessWidget(CapSense_BUTTON14_WDGT_ID);
 406:main.c        ****             CapSense_ProcessWidget(CapSense_BUTTON15_WDGT_ID);
 407:main.c        ****             CapSense_ProcessWidget(CapSense_BUTTON16_WDGT_ID);
 408:main.c        ****             CapSense_ProcessWidget(CapSense_BUTTON17_WDGT_ID);
 409:main.c        ****             CapSense_ProcessWidget(CapSense_BUTTON18_WDGT_ID);
 410:main.c        ****             CapSense_ProcessWidget(CapSense_BUTTON19_WDGT_ID);
 411:main.c        ****             CapSense_ProcessWidget(CapSense_BUTTON20_WDGT_ID);
 412:main.c        ****             CapSense_ProcessWidget(CapSense_BUTTON21_WDGT_ID);
 413:main.c        ****             CapSense_ProcessWidget(CapSense_BUTTON22_WDGT_ID);
 414:main.c        ****             CapSense_ProcessWidget(CapSense_BUTTON23_WDGT_ID);
 415:main.c        ****             CapSense_ProcessWidget(CapSense_BUTTON24_WDGT_ID);
 416:main.c        ****             CapSense_ProcessWidget(CapSense_BUTTON25_WDGT_ID);
 417:main.c        ****             CapSense_ProcessWidget(CapSense_BUTTON26_WDGT_ID);
 418:main.c        ****             CapSense_ProcessWidget(CapSense_BUTTON27_WDGT_ID);
 419:main.c        ****             CapSense_ProcessWidget(CapSense_BUTTON28_WDGT_ID);
 420:main.c        ****             CapSense_ProcessWidget(CapSense_BUTTON29_WDGT_ID);
 421:main.c        ****             CapSense_ProcessWidget(CapSense_BUTTON30_WDGT_ID);
 422:main.c        ****             CapSense_ProcessWidget(CapSense_BUTTON31_WDGT_ID);
 423:main.c        ****             CapSense_ProcessWidget(CapSense_BUTTON32_WDGT_ID);
 424:main.c        ****             CapSense_ProcessWidget(CapSense_BUTTON33_WDGT_ID);
 425:main.c        ****             Touch.channel_raw[0] = CapSense_BUTTON0_SNS0_RAW0_VALUE;
 426:main.c        ****             Touch.channel_raw[1] = CapSense_BUTTON1_SNS0_RAW0_VALUE;
 427:main.c        ****             Touch.channel_raw[2] = CapSense_BUTTON2_SNS0_RAW0_VALUE;
 428:main.c        ****             Touch.channel_raw[3] = CapSense_BUTTON3_SNS0_RAW0_VALUE;
 429:main.c        ****             Touch.channel_raw[4] = CapSense_BUTTON4_SNS0_RAW0_VALUE;
ARM GAS  C:\Users\Qinh\AppData\Local\Temp\ccbmCJ4b.s 			page 9


 430:main.c        ****             Touch.channel_raw[5] = CapSense_BUTTON5_SNS0_RAW0_VALUE;
 431:main.c        ****             Touch.channel_raw[6] = CapSense_BUTTON6_SNS0_RAW0_VALUE;
 432:main.c        ****             Touch.channel_raw[7] = CapSense_BUTTON7_SNS0_RAW0_VALUE;
 433:main.c        ****             Touch.channel_raw[8] = CapSense_BUTTON8_SNS0_RAW0_VALUE;
 434:main.c        ****             Touch.channel_raw[9] = CapSense_BUTTON9_SNS0_RAW0_VALUE;
 435:main.c        ****             Touch.channel_raw[10] = CapSense_BUTTON10_SNS0_RAW0_VALUE;
 436:main.c        ****             Touch.channel_raw[11] = CapSense_BUTTON11_SNS0_RAW0_VALUE;
 437:main.c        ****             Touch.channel_raw[12] = CapSense_BUTTON12_SNS0_RAW0_VALUE;
 438:main.c        ****             Touch.channel_raw[13] = CapSense_BUTTON13_SNS0_RAW0_VALUE;
 439:main.c        ****             Touch.channel_raw[14] = CapSense_BUTTON14_SNS0_RAW0_VALUE;
 440:main.c        ****             Touch.channel_raw[15] = CapSense_BUTTON15_SNS0_RAW0_VALUE;
 441:main.c        ****             Touch.channel_raw[16] = CapSense_BUTTON16_SNS0_RAW0_VALUE;
 442:main.c        ****             Touch.channel_raw[17] = CapSense_BUTTON17_SNS0_RAW0_VALUE;
 443:main.c        ****             Touch.channel_raw[18] = CapSense_BUTTON18_SNS0_RAW0_VALUE;
 444:main.c        ****             Touch.channel_raw[19] = CapSense_BUTTON19_SNS0_RAW0_VALUE;
 445:main.c        ****             Touch.channel_raw[20] = CapSense_BUTTON20_SNS0_RAW0_VALUE;
 446:main.c        ****             Touch.channel_raw[21] = CapSense_BUTTON21_SNS0_RAW0_VALUE;
 447:main.c        ****             Touch.channel_raw[22] = CapSense_BUTTON22_SNS0_RAW0_VALUE;
 448:main.c        ****             Touch.channel_raw[23] = CapSense_BUTTON23_SNS0_RAW0_VALUE;
 449:main.c        ****             Touch.channel_raw[24] = CapSense_BUTTON24_SNS0_RAW0_VALUE;
 450:main.c        ****             Touch.channel_raw[25] = CapSense_BUTTON25_SNS0_RAW0_VALUE;
 451:main.c        ****             Touch.channel_raw[26] = CapSense_BUTTON26_SNS0_RAW0_VALUE;
 452:main.c        ****             Touch.channel_raw[27] = CapSense_BUTTON27_SNS0_RAW0_VALUE;
 453:main.c        ****             Touch.channel_raw[28] = CapSense_BUTTON28_SNS0_RAW0_VALUE;
 454:main.c        ****             Touch.channel_raw[29] = CapSense_BUTTON29_SNS0_RAW0_VALUE;
 455:main.c        ****             Touch.channel_raw[30] = CapSense_BUTTON30_SNS0_RAW0_VALUE;
 456:main.c        ****             Touch.channel_raw[31] = CapSense_BUTTON31_SNS0_RAW0_VALUE;
 457:main.c        ****             Touch.channel_raw[32] = CapSense_BUTTON32_SNS0_RAW0_VALUE;
 458:main.c        ****             Touch.channel_raw[33] = CapSense_BUTTON33_SNS0_RAW0_VALUE;
 459:main.c        **** 
 460:main.c        ****             for(uint8_t i = 0;i<34;i++){
 461:main.c        ****                 Touch.channel_raw[i] = Touch.channel_raw[i] << resolution_zoom_map[i];
 462:main.c        ****             }
 463:main.c        ****             for(uint8_t i = 0;i<70;i++){
 464:main.c        ****                 UART_1_UartPutChar(Touch.data[i]);
 465:main.c        ****             }
 466:main.c        **** 
 467:main.c        **** /*
 468:main.c        ****             Touch.channel_raw[0] = Touch.channel_raw[0] << resolution_zoom_map[0];
 469:main.c        ****             vofa1.raw_data_fl = Touch.channel_raw[0];
 470:main.c        ****             for(uint8_t i = 0;i<4;i++){
 471:main.c        ****                 UART_1_UartPutChar(vofa1.raw_data_u8[i]);
 472:main.c        ****             }
 473:main.c        ****             UART_1_UartPutChar(0x00);
 474:main.c        ****             UART_1_UartPutChar(0x00);
 475:main.c        ****             UART_1_UartPutChar(0x80);
 476:main.c        ****             UART_1_UartPutChar(0x7f);
 477:main.c        ****  */
 478:main.c        ****             /*
 479:main.c        ****             UART_1_UartPutChar(0x00);
 480:main.c        ****             UART_1_UartPutChar(0x00);
 481:main.c        ****             UART_1_UartPutChar(CapSense_BUTTON0_SNS0_RAW0_VALUE >> 8);
 482:main.c        ****             UART_1_UartPutChar(CapSense_BUTTON0_SNS0_RAW0_VALUE);
 483:main.c        ****             UART_1_UartPutChar(CapSense_BUTTON1_SNS0_RAW0_VALUE >> 8);
 484:main.c        ****             UART_1_UartPutChar(CapSense_BUTTON1_SNS0_RAW0_VALUE);
 485:main.c        ****             UART_1_UartPutChar(CapSense_BUTTON2_SNS0_RAW0_VALUE >> 8);
 486:main.c        ****             UART_1_UartPutChar(CapSense_BUTTON2_SNS0_RAW0_VALUE);
ARM GAS  C:\Users\Qinh\AppData\Local\Temp\ccbmCJ4b.s 			page 10


 487:main.c        ****             UART_1_UartPutChar(CapSense_BUTTON3_SNS0_RAW0_VALUE >> 8);
 488:main.c        ****             UART_1_UartPutChar(CapSense_BUTTON3_SNS0_RAW0_VALUE);
 489:main.c        ****             UART_1_UartPutChar(CapSense_BUTTON4_SNS0_RAW0_VALUE >> 8);
 490:main.c        ****             UART_1_UartPutChar(CapSense_BUTTON4_SNS0_RAW0_VALUE);
 491:main.c        ****             UART_1_UartPutChar(CapSense_BUTTON5_SNS0_RAW0_VALUE >> 8);
 492:main.c        ****             UART_1_UartPutChar(CapSense_BUTTON5_SNS0_RAW0_VALUE);
 493:main.c        ****             UART_1_UartPutChar(CapSense_BUTTON6_SNS0_RAW0_VALUE >> 8);
 494:main.c        ****             UART_1_UartPutChar(CapSense_BUTTON6_SNS0_RAW0_VALUE);
 495:main.c        ****             UART_1_UartPutChar(CapSense_BUTTON7_SNS0_RAW0_VALUE >> 8);
 496:main.c        ****             UART_1_UartPutChar(CapSense_BUTTON7_SNS0_RAW0_VALUE);
 497:main.c        ****             UART_1_UartPutChar(CapSense_BUTTON8_SNS0_RAW0_VALUE >> 8);
 498:main.c        ****             UART_1_UartPutChar(CapSense_BUTTON8_SNS0_RAW0_VALUE);
 499:main.c        ****             UART_1_UartPutChar(CapSense_BUTTON9_SNS0_RAW0_VALUE >> 8);
 500:main.c        ****             UART_1_UartPutChar(CapSense_BUTTON9_SNS0_RAW0_VALUE);
 501:main.c        ****             UART_1_UartPutChar(CapSense_BUTTON10_SNS0_RAW0_VALUE >> 8);
 502:main.c        ****             UART_1_UartPutChar(CapSense_BUTTON10_SNS0_RAW0_VALUE);
 503:main.c        ****             UART_1_UartPutChar(CapSense_BUTTON11_SNS0_RAW0_VALUE >> 8);
 504:main.c        ****             UART_1_UartPutChar(CapSense_BUTTON11_SNS0_RAW0_VALUE);
 505:main.c        ****             UART_1_UartPutChar(CapSense_BUTTON12_SNS0_RAW0_VALUE >> 8);
 506:main.c        ****             UART_1_UartPutChar(CapSense_BUTTON12_SNS0_RAW0_VALUE);
 507:main.c        ****             UART_1_UartPutChar(CapSense_BUTTON13_SNS0_RAW0_VALUE >> 8);
 508:main.c        ****             UART_1_UartPutChar(CapSense_BUTTON13_SNS0_RAW0_VALUE);
 509:main.c        ****             UART_1_UartPutChar(CapSense_BUTTON14_SNS0_RAW0_VALUE >> 8);
 510:main.c        ****             UART_1_UartPutChar(CapSense_BUTTON14_SNS0_RAW0_VALUE);
 511:main.c        ****             UART_1_UartPutChar(CapSense_BUTTON15_SNS0_RAW0_VALUE >> 8);
 512:main.c        ****             UART_1_UartPutChar(CapSense_BUTTON15_SNS0_RAW0_VALUE);
 513:main.c        ****             UART_1_UartPutChar(CapSense_BUTTON16_SNS0_RAW0_VALUE >> 8);
 514:main.c        ****             UART_1_UartPutChar(CapSense_BUTTON16_SNS0_RAW0_VALUE);
 515:main.c        ****             UART_1_UartPutChar(CapSense_BUTTON17_SNS0_RAW0_VALUE >> 8);
 516:main.c        ****             UART_1_UartPutChar(CapSense_BUTTON17_SNS0_RAW0_VALUE);
 517:main.c        ****             UART_1_UartPutChar(CapSense_BUTTON18_SNS0_RAW0_VALUE >> 8);
 518:main.c        ****             UART_1_UartPutChar(CapSense_BUTTON18_SNS0_RAW0_VALUE);
 519:main.c        ****             UART_1_UartPutChar(CapSense_BUTTON19_SNS0_RAW0_VALUE >> 8);
 520:main.c        ****             UART_1_UartPutChar(CapSense_BUTTON19_SNS0_RAW0_VALUE);
 521:main.c        ****             UART_1_UartPutChar(CapSense_BUTTON20_SNS0_RAW0_VALUE >> 8);
 522:main.c        ****             UART_1_UartPutChar(CapSense_BUTTON20_SNS0_RAW0_VALUE);
 523:main.c        ****             UART_1_UartPutChar(CapSense_BUTTON21_SNS0_RAW0_VALUE >> 8);
 524:main.c        ****             UART_1_UartPutChar(CapSense_BUTTON21_SNS0_RAW0_VALUE);
 525:main.c        ****             UART_1_UartPutChar(CapSense_BUTTON22_SNS0_RAW0_VALUE >> 8);
 526:main.c        ****             UART_1_UartPutChar(CapSense_BUTTON22_SNS0_RAW0_VALUE);
 527:main.c        ****             UART_1_UartPutChar(CapSense_BUTTON23_SNS0_RAW0_VALUE >> 8);
 528:main.c        ****             UART_1_UartPutChar(CapSense_BUTTON23_SNS0_RAW0_VALUE);
 529:main.c        ****             UART_1_UartPutChar(CapSense_BUTTON24_SNS0_RAW0_VALUE >> 8);
 530:main.c        ****             UART_1_UartPutChar(CapSense_BUTTON24_SNS0_RAW0_VALUE);
 531:main.c        ****             UART_1_UartPutChar(CapSense_BUTTON25_SNS0_RAW0_VALUE >> 8);
 532:main.c        ****             UART_1_UartPutChar(CapSense_BUTTON25_SNS0_RAW0_VALUE);
 533:main.c        ****             UART_1_UartPutChar(CapSense_BUTTON26_SNS0_RAW0_VALUE >> 8);
 534:main.c        ****             UART_1_UartPutChar(CapSense_BUTTON26_SNS0_RAW0_VALUE);
 535:main.c        ****             UART_1_UartPutChar(CapSense_BUTTON27_SNS0_RAW0_VALUE >> 8);
 536:main.c        ****             UART_1_UartPutChar(CapSense_BUTTON27_SNS0_RAW0_VALUE);
 537:main.c        ****             UART_1_UartPutChar(CapSense_BUTTON28_SNS0_RAW0_VALUE >> 8);
 538:main.c        ****             UART_1_UartPutChar(CapSense_BUTTON28_SNS0_RAW0_VALUE);
 539:main.c        ****             UART_1_UartPutChar(CapSense_BUTTON29_SNS0_RAW0_VALUE >> 8);
 540:main.c        ****             UART_1_UartPutChar(CapSense_BUTTON29_SNS0_RAW0_VALUE);
 541:main.c        ****             UART_1_UartPutChar(CapSense_BUTTON30_SNS0_RAW0_VALUE >> 8);
 542:main.c        ****             UART_1_UartPutChar(CapSense_BUTTON30_SNS0_RAW0_VALUE);
 543:main.c        ****             UART_1_UartPutChar(CapSense_BUTTON31_SNS0_RAW0_VALUE >> 8);
ARM GAS  C:\Users\Qinh\AppData\Local\Temp\ccbmCJ4b.s 			page 11


 544:main.c        ****             UART_1_UartPutChar(CapSense_BUTTON31_SNS0_RAW0_VALUE);
 545:main.c        ****             UART_1_UartPutChar(CapSense_BUTTON32_SNS0_RAW0_VALUE >> 8);
 546:main.c        ****             UART_1_UartPutChar(CapSense_BUTTON32_SNS0_RAW0_VALUE);
 547:main.c        ****             UART_1_UartPutChar(CapSense_BUTTON33_SNS0_RAW0_VALUE >> 8);
 548:main.c        ****             UART_1_UartPutChar(CapSense_BUTTON33_SNS0_RAW0_VALUE);
 549:main.c        ****             */
 550:main.c        ****                 if(deviceScanMode == FAST_SCAN_MODE)
 551:main.c        ****                 {  
 552:main.c        ****                     /* If button is active, reset software counter */
 553:main.c        ****                     if (CapSense_IsAnyWidgetActive())
 554:main.c        ****                     {
 555:main.c        ****                         /* Reset the software counter if any button is active. */
 556:main.c        ****                         softCounter = RESET;
 557:main.c        ****                     }
 558:main.c        ****                     else
 559:main.c        ****                     {
 560:main.c        ****                         /* Increment the software counter every LOOP_TIME_FASTSCANMODE if button 
 561:main.c        ****                         *  touch is not detected. 
 562:main.c        ****                         */
 563:main.c        ****                         softCounter++;  
 564:main.c        ****                         
 565:main.c        ****                         /* If finger is not on sensor for SCANMODE_TIMEOUT_VALUE, switch off the 
 566:main.c        ****                         *  LEDs and switch mode to slow scan mode to reduce power consumption 
 567:main.c        ****                         */
 568:main.c        ****                         if(softCounter >= SCANMODE_TIMEOUT_VALUE)
 569:main.c        ****                         {   
 570:main.c        ****                             /* Watchdog is configured to generate interrupt at LOOP_TIME_SLOWSCANMO
 571:main.c        ****                             watchdogMatchValue = wdtMatchValSlowMode;
 572:main.c        ****                             
 573:main.c        ****                             #if(CY_IP_SRSSV2)
 574:main.c        ****                                 /* Configure Match value */
 575:main.c        ****                                 CySysWdtWriteMatch(CY_SYS_WDT_COUNTER0, watchdogMatchValue);
 576:main.c        ****                             #endif
 577:main.c        ****         
 578:main.c        ****                             /* Set mode to slow scan mode to scan sensors at LOOP_TIME_SLOWSCANMODE
 579:main.c        ****                             deviceScanMode = SLOW_SCAN_MODE;
 580:main.c        ****                         }
 581:main.c        ****                     }
 582:main.c        ****                 }
 583:main.c        ****                 /* If deviceScanMode is SLOW_SCAN_MODE, perform the following tasks */   
 584:main.c        ****                 else
 585:main.c        ****                 {                    
 586:main.c        ****                     /* If button is active, switch to active mode */
 587:main.c        ****                     if (CapSense_IsAnyWidgetActive())
 588:main.c        ****                     {   
 589:main.c        ****                        /* If sensor is active in slow-scan mode, skip sleep
 590:main.c        ****                         *  and perform sensor scan
 591:main.c        ****                         */
 592:main.c        ****                         currentState = SENSOR_SCAN;
 593:main.c        ****                         
 594:main.c        ****                         /* Set watchdog match value to fast scan mode */
 595:main.c        ****                         watchdogMatchValue = wdtMatchValFastMode;      
 596:main.c        ****                         
 597:main.c        ****                         #if(CY_IP_SRSSV2)
 598:main.c        ****                             /* Configure Match value */
 599:main.c        ****                             CySysWdtWriteMatch(CY_SYS_WDT_COUNTER0, watchdogMatchValue);
 600:main.c        ****                         #endif
ARM GAS  C:\Users\Qinh\AppData\Local\Temp\ccbmCJ4b.s 			page 12


 601:main.c        ****                         
 602:main.c        ****                         /* Change the device mode to fast scan mode to provide fast touch response 
 603:main.c        ****                         deviceScanMode = FAST_SCAN_MODE; 
 604:main.c        ****                     }                    
 605:main.c        ****                 }
 606:main.c        ****                 currentState = SENSOR_SCAN;
 607:main.c        ****                 deviceScanMode = FAST_SCAN_MODE; 
 608:main.c        ****                 break;
 609:main.c        ****                 
 610:main.c        ****             case SLEEP:
 611:main.c        ****                 /* Put the device to deep sleep after each CapSense scan */
 612:main.c        ****                 EnterDeepSleepLowPowerMode();
 613:main.c        ****                 
 614:main.c        ****                 /* Start scanning the sensors only if interrupt occurred due to WDT.
 615:main.c        ****                    Interrupt can also occur due to I2C interrupt while tuner is running.
 616:main.c        ****                    In such cases, sensor is not scanned until WDT interrupt has occurred
 617:main.c        ****                 */
 618:main.c        ****                 if(wdtInterruptOccured)
 619:main.c        ****                 {
 620:main.c        ****                     /* Set state to scan sensor after device wakes up from sleep */
 621:main.c        ****                     currentState = SENSOR_SCAN;
 622:main.c        ****                     
 623:main.c        ****                     wdtInterruptOccured = FALSE;  
 624:main.c        ****                 }
 625:main.c        ****                 break;
 626:main.c        ****                 
 627:main.c        ****             default:
 628:main.c        ****                 /*******************************************************************
 629:main.c        ****                  * Unknown power mode state. Unexpected situation.
 630:main.c        ****                  ******************************************************************/
 631:main.c        ****                 CYASSERT(0);
 632:main.c        ****                 break;
 633:main.c        ****         } 
 634:main.c        ****     }  
 635:main.c        **** }    
 636:main.c        **** 
 637:main.c        **** /*******************************************************************************
 638:main.c        **** * Function Name: EnterDeepSleepLowPowerMode
 639:main.c        **** ********************************************************************************
 640:main.c        **** * Summary:
 641:main.c        **** *  Put the device to DeepSleep power mode. Reconfigures the Components for 
 642:main.c        **** *  normal operation after wake-up. 
 643:main.c        **** *
 644:main.c        **** * Parameters:
 645:main.c        **** *  void
 646:main.c        **** *
 647:main.c        **** * Return:
 648:main.c        **** *  void
 649:main.c        **** *
 650:main.c        **** * Theory: Before going to deep sleep, the API checks for any
 651:main.c        **** *         I2C activity and waits till the I2C transaction is complete before 
 652:main.c        **** *         the device is put to deep sleep. 
 653:main.c        **** *
 654:main.c        **** * Side Effects: None
 655:main.c        **** *
 656:main.c        **** * Note:
 657:main.c        **** *
ARM GAS  C:\Users\Qinh\AppData\Local\Temp\ccbmCJ4b.s 			page 13


 658:main.c        **** *******************************************************************************/
 659:main.c        **** void EnterDeepSleepLowPowerMode(void)
 660:main.c        **** {
  28              		.loc 1 660 0
  29              		.cfi_startproc
  30              		@ args = 0, pretend = 0, frame = 0
  31              		@ frame_needed = 0, uses_anonymous_args = 0
  32 0000 10B5     		push	{r4, lr}
  33              		.cfi_def_cfa_offset 8
  34              		.cfi_offset 4, -8
  35              		.cfi_offset 14, -4
 661:main.c        ****     /* EZI2C_Sleep routine should be called only after on-going I2C 
 662:main.c        ****     *  transaction is complete
 663:main.c        ****     *  Enter critical section to lock slave state 
 664:main.c        ****     */
 665:main.c        ****     interruptState = CyEnterCriticalSection();
  36              		.loc 1 665 0
  37 0002 FFF7FEFF 		bl	CyEnterCriticalSection
  38              	.LVL0:
  39 0006 024B     		ldr	r3, .L2
  40 0008 1860     		str	r0, [r3]
 666:main.c        ****     /* Enable interrupts */
 667:main.c        ****     CyExitCriticalSection(interruptState);
  41              		.loc 1 667 0
  42 000a FFF7FEFF 		bl	CyExitCriticalSection
  43              	.LVL1:
 668:main.c        **** }
  44              		.loc 1 668 0
  45              		@ sp needed
  46 000e 10BD     		pop	{r4, pc}
  47              	.L3:
  48              		.align	2
  49              	.L2:
  50 0010 00000000 		.word	.LANCHOR0
  51              		.cfi_endproc
  52              	.LFE34:
  53              		.size	EnterDeepSleepLowPowerMode, .-EnterDeepSleepLowPowerMode
  54              		.section	.text.Timer_Interrupt,"ax",%progbits
  55              		.align	2
  56              		.global	Timer_Interrupt
  57              		.code	16
  58              		.thumb_func
  59              		.type	Timer_Interrupt, %function
  60              	Timer_Interrupt:
  61              	.LFB35:
 669:main.c        **** 
 670:main.c        **** /******************************************************************************
 671:main.c        **** * Function Name: Timer_Interrupt
 672:main.c        **** *******************************************************************************
 673:main.c        **** *
 674:main.c        **** * Summary:
 675:main.c        **** *  Handles the Interrupt Service Routine for the WDT timer.
 676:main.c        **** *
 677:main.c        **** * Parameters:
 678:main.c        **** *  None.
 679:main.c        **** *
 680:main.c        **** * Return:
ARM GAS  C:\Users\Qinh\AppData\Local\Temp\ccbmCJ4b.s 			page 14


 681:main.c        **** *  None.
 682:main.c        **** *
 683:main.c        **** * Theory: The interrupt is cleared on the ISR as watchdog in this project is 
 684:main.c        **** *         used for timing maintenance only. Match value is updated to maintain 
 685:main.c        **** *         the loop time. 
 686:main.c        **** *
 687:main.c        **** * Side Effects: None
 688:main.c        **** *
 689:main.c        **** * Note:
 690:main.c        **** *
 691:main.c        **** *******************************************************************************/
 692:main.c        **** CY_ISR(Timer_Interrupt)
 693:main.c        **** {
  62              		.loc 1 693 0
  63              		.cfi_startproc
  64              		@ args = 0, pretend = 0, frame = 0
  65              		@ frame_needed = 0, uses_anonymous_args = 0
  66 0000 10B5     		push	{r4, lr}
  67              		.cfi_def_cfa_offset 8
  68              		.cfi_offset 4, -8
  69              		.cfi_offset 14, -4
 694:main.c        ****     #if (CY_IP_SRSSV2)    
 695:main.c        ****         /* Clears interrupt request  */
 696:main.c        ****         CySysWdtClearInterrupt(CY_SYS_WDT_COUNTER0_INT);
 697:main.c        ****     #else
 698:main.c        ****         /* Clear the watchdog interrupt */
 699:main.c        ****         CySysWdtClearInterrupt();    
  70              		.loc 1 699 0
  71 0002 FFF7FEFF 		bl	CySysWdtClearInterrupt
  72              	.LVL2:
 700:main.c        ****         
 701:main.c        ****         /* WDT match value is updated in order to obtain periodic interrupts */
 702:main.c        ****         CySysWdtWriteMatch(CySysWdtReadMatch() + watchdogMatchValue); 
  73              		.loc 1 702 0
  74 0006 FFF7FEFF 		bl	CySysWdtGetMatch
  75              	.LVL3:
  76 000a 044B     		ldr	r3, .L5
  77 000c 1B68     		ldr	r3, [r3]
  78 000e C018     		adds	r0, r0, r3
  79 0010 FFF7FEFF 		bl	CySysWdtSetMatch
  80              	.LVL4:
 703:main.c        ****     #endif /* !CY_IP_SRSSV2 */
 704:main.c        ****     
 705:main.c        ****     /* Set to variable that indicates that WDT interrupt had triggered*/
 706:main.c        ****     wdtInterruptOccured = TRUE;   
  81              		.loc 1 706 0
  82 0014 0122     		movs	r2, #1
  83 0016 024B     		ldr	r3, .L5+4
  84 0018 1A71     		strb	r2, [r3, #4]
 707:main.c        **** }
  85              		.loc 1 707 0
  86              		@ sp needed
  87 001a 10BD     		pop	{r4, pc}
  88              	.L6:
  89              		.align	2
  90              	.L5:
  91 001c 00000000 		.word	.LANCHOR1
ARM GAS  C:\Users\Qinh\AppData\Local\Temp\ccbmCJ4b.s 			page 15


  92 0020 00000000 		.word	.LANCHOR0
  93              		.cfi_endproc
  94              	.LFE35:
  95              		.size	Timer_Interrupt, .-Timer_Interrupt
  96              		.global	__aeabi_uidiv
  97              		.section	.text.CalibrateWdtMatchValue,"ax",%progbits
  98              		.align	2
  99              		.global	CalibrateWdtMatchValue
 100              		.code	16
 101              		.thumb_func
 102              		.type	CalibrateWdtMatchValue, %function
 103              	CalibrateWdtMatchValue:
 104              	.LFB37:
 708:main.c        **** 
 709:main.c        **** /******************************************************************************
 710:main.c        **** * Function Name: WDT_Start
 711:main.c        **** *******************************************************************************
 712:main.c        **** *
 713:main.c        **** * Summary:
 714:main.c        **** *  Configures WDT.
 715:main.c        **** *
 716:main.c        **** * Parameters:
 717:main.c        **** *  None.
 718:main.c        **** *
 719:main.c        **** * Return:
 720:main.c        **** *  None.
 721:main.c        **** *
 722:main.c        **** * Theory: This API unmasks the WDT interrupt to route the interrupt to CPU and 
 723:main.c        **** *         configures the ISR.
 724:main.c        **** *
 725:main.c        **** * Side Effects: None
 726:main.c        **** *
 727:main.c        **** * Note:
 728:main.c        **** *
 729:main.c        **** *******************************************************************************/
 730:main.c        **** void WDT_Start(void)
 731:main.c        **** {  
 732:main.c        ****     /* Get the actual match value required to generate a given delay */
 733:main.c        ****     watchdogMatchValue = WDT_TIMEOUT_FAST_SCAN;
 734:main.c        ****     CalibrateWdtMatchValue();
 735:main.c        ****     wdtMatchValFastMode  = watchdogMatchValue;
 736:main.c        ****     
 737:main.c        ****     watchdogMatchValue = WDT_TIMEOUT_SLOW_SCAN;
 738:main.c        ****     CalibrateWdtMatchValue();
 739:main.c        ****     wdtMatchValSlowMode = watchdogMatchValue;
 740:main.c        ****     
 741:main.c        ****     #if (CY_IP_SRSSV2)    
 742:main.c        ****         /* Configure Match value */
 743:main.c        ****         CySysWdtWriteMatch(CY_SYS_WDT_COUNTER0, wdtMatchValFastMode);
 744:main.c        ****         
 745:main.c        ****         /* Set up WDT mode */
 746:main.c        ****         CySysWdtSetMode(CY_SYS_WDT_COUNTER0, CY_SYS_WDT_MODE_INT);
 747:main.c        ****         
 748:main.c        ****         /* Automatically reset counter */
 749:main.c        ****         CySysWdtSetClearOnMatch(CY_SYS_WDT_COUNTER0, ENABLE_WDT);
 750:main.c        ****         CySysWdtResetCounters(CY_SYS_WDT_COUNTER0_RESET);
 751:main.c        ****         
ARM GAS  C:\Users\Qinh\AppData\Local\Temp\ccbmCJ4b.s 			page 16


 752:main.c        ****         /* Enable WDT */
 753:main.c        ****         CySysWdtEnable(CY_SYS_WDT_COUNTER0_MASK);
 754:main.c        ****     #else 
 755:main.c        ****         /* WDT match value is updated in order to obtain periodic interrupts */
 756:main.c        ****         CySysWdtWriteMatch(CySysWdtReadMatch() + watchdogMatchValue);
 757:main.c        ****         
 758:main.c        ****         /* Enable WDT interrupt */
 759:main.c        ****         CySysWdtUnmaskInterrupt();
 760:main.c        ****     #endif
 761:main.c        **** }
 762:main.c        **** /*******************************************************************************
 763:main.c        **** * Function Name: CalibrateWdtMatchValue
 764:main.c        **** ********************************************************************************
 765:main.c        **** * Summary: 
 766:main.c        **** *  This function calibrates the match value of the Watchdog Timer 
 767:main.c        **** *
 768:main.c        **** * Parameter:
 769:main.c        **** *  None
 770:main.c        **** *
 771:main.c        **** * Return:
 772:main.c        **** *  void
 773:main.c        **** *
 774:main.c        **** * Theory: The ILO is calibrated using IMO to improve the accuracy of ILO.
 775:main.c        **** *
 776:main.c        **** * Side Effects: None
 777:main.c        **** *
 778:main.c        **** * Note:
 779:main.c        **** *
 780:main.c        **** *******************************************************************************/
 781:main.c        **** void CalibrateWdtMatchValue()
 782:main.c        **** {    
 105              		.loc 1 782 0
 106              		.cfi_startproc
 107              		@ args = 0, pretend = 0, frame = 8
 108              		@ frame_needed = 0, uses_anonymous_args = 0
 109 0000 00B5     		push	{lr}
 110              		.cfi_def_cfa_offset 4
 111              		.cfi_offset 14, -4
 112 0002 83B0     		sub	sp, sp, #12
 113              		.cfi_def_cfa_offset 16
 783:main.c        ****     /* Contains ILO Trimmed value */
 784:main.c        ****     uint32 tempIloCounts = 0u;
 114              		.loc 1 784 0
 115 0004 0023     		movs	r3, #0
 116 0006 0193     		str	r3, [sp, #4]
 785:main.c        ****     
 786:main.c        ****     /* Desired delay in microseconds for ILO Trimming */
 787:main.c        ****     uint32 desiredDelay = ((watchdogMatchValue / ILO_CLOCK_FACTOR) * MILLI_SEC_TO_MICRO_SEC);  
 117              		.loc 1 787 0
 118 0008 084B     		ldr	r3, .L9
 119 000a 1868     		ldr	r0, [r3]
 120 000c 2821     		movs	r1, #40
 121 000e FFF7FEFF 		bl	__aeabi_uidiv
 122              	.LVL5:
 123 0012 FA23     		movs	r3, #250
 124 0014 9B00     		lsls	r3, r3, #2
 125 0016 5843     		muls	r0, r3
ARM GAS  C:\Users\Qinh\AppData\Local\Temp\ccbmCJ4b.s 			page 17


 126              	.LVL6:
 788:main.c        ****     
 789:main.c        ****     /* Get the ILO compensated counts i.e. the actual counts for the desired ILO frequency 
 790:main.c        ****     *  Trimming is done to improve ILO accuracy using IMO; ILO default accuracy is +/- 60% 
 791:main.c        ****     */
 792:main.c        ****     if(CYRET_SUCCESS == CySysClkIloCompensate(desiredDelay, &tempIloCounts))
 127              		.loc 1 792 0
 128 0018 01A9     		add	r1, sp, #4
 129 001a FFF7FEFF 		bl	CySysClkIloCompensate
 130              	.LVL7:
 131 001e 0028     		cmp	r0, #0
 132 0020 02D1     		bne	.L7
 793:main.c        ****     {    
 794:main.c        ****         watchdogMatchValue = (uint32)tempIloCounts;
 133              		.loc 1 794 0
 134 0022 024B     		ldr	r3, .L9
 135 0024 019A     		ldr	r2, [sp, #4]
 136 0026 1A60     		str	r2, [r3]
 137              	.L7:
 795:main.c        ****     }    
 796:main.c        **** }
 138              		.loc 1 796 0
 139 0028 03B0     		add	sp, sp, #12
 140              		@ sp needed
 141 002a 00BD     		pop	{pc}
 142              	.L10:
 143              		.align	2
 144              	.L9:
 145 002c 00000000 		.word	.LANCHOR1
 146              		.cfi_endproc
 147              	.LFE37:
 148              		.size	CalibrateWdtMatchValue, .-CalibrateWdtMatchValue
 149              		.section	.text.WDT_Start,"ax",%progbits
 150              		.align	2
 151              		.global	WDT_Start
 152              		.code	16
 153              		.thumb_func
 154              		.type	WDT_Start, %function
 155              	WDT_Start:
 156              	.LFB36:
 731:main.c        ****     /* Get the actual match value required to generate a given delay */
 157              		.loc 1 731 0
 158              		.cfi_startproc
 159              		@ args = 0, pretend = 0, frame = 0
 160              		@ frame_needed = 0, uses_anonymous_args = 0
 161 0000 70B5     		push	{r4, r5, r6, lr}
 162              		.cfi_def_cfa_offset 16
 163              		.cfi_offset 4, -16
 164              		.cfi_offset 5, -12
 165              		.cfi_offset 6, -8
 166              		.cfi_offset 14, -4
 733:main.c        ****     CalibrateWdtMatchValue();
 167              		.loc 1 733 0
 168 0002 0C4C     		ldr	r4, .L12
 169 0004 9623     		movs	r3, #150
 170 0006 DB00     		lsls	r3, r3, #3
 171 0008 2360     		str	r3, [r4]
ARM GAS  C:\Users\Qinh\AppData\Local\Temp\ccbmCJ4b.s 			page 18


 734:main.c        ****     wdtMatchValFastMode  = watchdogMatchValue;
 172              		.loc 1 734 0
 173 000a FFF7FEFF 		bl	CalibrateWdtMatchValue
 174              	.LVL8:
 735:main.c        ****     
 175              		.loc 1 735 0
 176 000e 2368     		ldr	r3, [r4]
 177 0010 094D     		ldr	r5, .L12+4
 178 0012 AB60     		str	r3, [r5, #8]
 737:main.c        ****     CalibrateWdtMatchValue();
 179              		.loc 1 737 0
 180 0014 FA23     		movs	r3, #250
 181 0016 5B01     		lsls	r3, r3, #5
 182 0018 2360     		str	r3, [r4]
 738:main.c        ****     wdtMatchValSlowMode = watchdogMatchValue;
 183              		.loc 1 738 0
 184 001a FFF7FEFF 		bl	CalibrateWdtMatchValue
 185              	.LVL9:
 739:main.c        ****     
 186              		.loc 1 739 0
 187 001e 2368     		ldr	r3, [r4]
 188 0020 EB60     		str	r3, [r5, #12]
 756:main.c        ****         
 189              		.loc 1 756 0
 190 0022 FFF7FEFF 		bl	CySysWdtGetMatch
 191              	.LVL10:
 192 0026 2368     		ldr	r3, [r4]
 193 0028 C018     		adds	r0, r0, r3
 194 002a FFF7FEFF 		bl	CySysWdtSetMatch
 195              	.LVL11:
 759:main.c        ****     #endif
 196              		.loc 1 759 0
 197 002e FFF7FEFF 		bl	CySysWdtUnmaskInterrupt
 198              	.LVL12:
 761:main.c        **** /*******************************************************************************
 199              		.loc 1 761 0
 200              		@ sp needed
 201 0032 70BD     		pop	{r4, r5, r6, pc}
 202              	.L13:
 203              		.align	2
 204              	.L12:
 205 0034 00000000 		.word	.LANCHOR1
 206 0038 00000000 		.word	.LANCHOR0
 207              		.cfi_endproc
 208              	.LFE36:
 209              		.size	WDT_Start, .-WDT_Start
 210              		.section	.text.main,"ax",%progbits
 211              		.align	2
 212              		.global	main
 213              		.code	16
 214              		.thumb_func
 215              		.type	main, %function
 216              	main:
 217              	.LFB33:
 160:main.c        ****     /* Variable to hold the current device state 
 218              		.loc 1 160 0
 219              		.cfi_startproc
ARM GAS  C:\Users\Qinh\AppData\Local\Temp\ccbmCJ4b.s 			page 19


 220              		@ args = 0, pretend = 0, frame = 0
 221              		@ frame_needed = 0, uses_anonymous_args = 0
 222 0000 70B5     		push	{r4, r5, r6, lr}
 223              		.cfi_def_cfa_offset 16
 224              		.cfi_offset 4, -16
 225              		.cfi_offset 5, -12
 226              		.cfi_offset 6, -8
 227              		.cfi_offset 14, -4
 228              	.LVL13:
 176:main.c        ****     UART_1_Start();
 229              		.loc 1 176 0
 230              		.syntax divided
 231              	@ 176 "main.c" 1
 232 0002 62B6     		CPSIE   i
 233              	@ 0 "" 2
 177:main.c        **** 
 234              		.loc 1 177 0
 235              		.thumb
 236              		.syntax unified
 237 0004 FFF7FEFF 		bl	UART_1_Start
 238              	.LVL14:
 183:main.c        **** 
 239              		.loc 1 183 0
 240 0008 FFF7FEFF 		bl	CapSense_Start
 241              	.LVL15:
 193:main.c        ****     resolution_zoom_map[0] = 16 - CapSense_BUTTON0_RESOLUTION_VALUE;
 242              		.loc 1 193 0
 243 000c FFF7FEFF 		bl	WDT_Start
 244              	.LVL16:
 194:main.c        ****     resolution_zoom_map[1] = 16 - CapSense_BUTTON1_RESOLUTION_VALUE;
 245              		.loc 1 194 0
 246 0010 5749     		ldr	r1, .L64
 247 0012 4623     		movs	r3, #70
 248 0014 C85A     		ldrh	r0, [r1, r3]
 249 0016 574A     		ldr	r2, .L64+4
 250 0018 1023     		movs	r3, #16
 251 001a 181A     		subs	r0, r3, r0
 252 001c 1070     		strb	r0, [r2]
 195:main.c        ****     resolution_zoom_map[2] = 16 - CapSense_BUTTON2_RESOLUTION_VALUE;
 253              		.loc 1 195 0
 254 001e 5A20     		movs	r0, #90
 255 0020 085A     		ldrh	r0, [r1, r0]
 256 0022 181A     		subs	r0, r3, r0
 257 0024 5070     		strb	r0, [r2, #1]
 196:main.c        ****     resolution_zoom_map[3] = 16 - CapSense_BUTTON3_RESOLUTION_VALUE;
 258              		.loc 1 196 0
 259 0026 6E20     		movs	r0, #110
 260 0028 085A     		ldrh	r0, [r1, r0]
 261 002a 181A     		subs	r0, r3, r0
 262 002c 9070     		strb	r0, [r2, #2]
 197:main.c        ****     resolution_zoom_map[4] = 16 - CapSense_BUTTON4_RESOLUTION_VALUE;
 263              		.loc 1 197 0
 264 002e 8220     		movs	r0, #130
 265 0030 085A     		ldrh	r0, [r1, r0]
 266 0032 181A     		subs	r0, r3, r0
 267 0034 D070     		strb	r0, [r2, #3]
 198:main.c        ****     resolution_zoom_map[5] = 16 - CapSense_BUTTON5_RESOLUTION_VALUE;
ARM GAS  C:\Users\Qinh\AppData\Local\Temp\ccbmCJ4b.s 			page 20


 268              		.loc 1 198 0
 269 0036 9620     		movs	r0, #150
 270 0038 085A     		ldrh	r0, [r1, r0]
 271 003a 181A     		subs	r0, r3, r0
 272 003c 1071     		strb	r0, [r2, #4]
 199:main.c        ****     resolution_zoom_map[6] = 16 - CapSense_BUTTON6_RESOLUTION_VALUE;
 273              		.loc 1 199 0
 274 003e AA20     		movs	r0, #170
 275 0040 085A     		ldrh	r0, [r1, r0]
 276 0042 181A     		subs	r0, r3, r0
 277 0044 5071     		strb	r0, [r2, #5]
 200:main.c        ****     resolution_zoom_map[7] = 16 - CapSense_BUTTON7_RESOLUTION_VALUE;
 278              		.loc 1 200 0
 279 0046 BE20     		movs	r0, #190
 280 0048 085A     		ldrh	r0, [r1, r0]
 281 004a 181A     		subs	r0, r3, r0
 282 004c 9071     		strb	r0, [r2, #6]
 201:main.c        ****     resolution_zoom_map[8] = 16 - CapSense_BUTTON8_RESOLUTION_VALUE;
 283              		.loc 1 201 0
 284 004e D220     		movs	r0, #210
 285 0050 085A     		ldrh	r0, [r1, r0]
 286 0052 181A     		subs	r0, r3, r0
 287 0054 D071     		strb	r0, [r2, #7]
 202:main.c        ****     resolution_zoom_map[9] = 16 - CapSense_BUTTON9_RESOLUTION_VALUE;
 288              		.loc 1 202 0
 289 0056 E620     		movs	r0, #230
 290 0058 085A     		ldrh	r0, [r1, r0]
 291 005a 181A     		subs	r0, r3, r0
 292 005c 1072     		strb	r0, [r2, #8]
 203:main.c        ****     resolution_zoom_map[10] = 16 - CapSense_BUTTON10_RESOLUTION_VALUE;
 293              		.loc 1 203 0
 294 005e FA20     		movs	r0, #250
 295 0060 085A     		ldrh	r0, [r1, r0]
 296 0062 181A     		subs	r0, r3, r0
 297 0064 5072     		strb	r0, [r2, #9]
 204:main.c        ****     resolution_zoom_map[11] = 16 - CapSense_BUTTON11_RESOLUTION_VALUE;
 298              		.loc 1 204 0
 299 0066 8720     		movs	r0, #135
 300 0068 4000     		lsls	r0, r0, #1
 301 006a 085A     		ldrh	r0, [r1, r0]
 302 006c 181A     		subs	r0, r3, r0
 303 006e 9072     		strb	r0, [r2, #10]
 205:main.c        ****     resolution_zoom_map[12] = 16 - CapSense_BUTTON12_RESOLUTION_VALUE;
 304              		.loc 1 205 0
 305 0070 9120     		movs	r0, #145
 306 0072 4000     		lsls	r0, r0, #1
 307 0074 085A     		ldrh	r0, [r1, r0]
 308 0076 181A     		subs	r0, r3, r0
 309 0078 D072     		strb	r0, [r2, #11]
 206:main.c        ****     resolution_zoom_map[13] = 16 - CapSense_BUTTON13_RESOLUTION_VALUE;
 310              		.loc 1 206 0
 311 007a 9B20     		movs	r0, #155
 312 007c 4000     		lsls	r0, r0, #1
 313 007e 085A     		ldrh	r0, [r1, r0]
 314 0080 181A     		subs	r0, r3, r0
 315 0082 1073     		strb	r0, [r2, #12]
 207:main.c        ****     resolution_zoom_map[14] = 16 - CapSense_BUTTON14_RESOLUTION_VALUE;
ARM GAS  C:\Users\Qinh\AppData\Local\Temp\ccbmCJ4b.s 			page 21


 316              		.loc 1 207 0
 317 0084 A520     		movs	r0, #165
 318 0086 4000     		lsls	r0, r0, #1
 319 0088 085A     		ldrh	r0, [r1, r0]
 320 008a 181A     		subs	r0, r3, r0
 321 008c 5073     		strb	r0, [r2, #13]
 208:main.c        ****     resolution_zoom_map[15] = 16 - CapSense_BUTTON15_RESOLUTION_VALUE;
 322              		.loc 1 208 0
 323 008e AF20     		movs	r0, #175
 324 0090 4000     		lsls	r0, r0, #1
 325 0092 085A     		ldrh	r0, [r1, r0]
 326 0094 181A     		subs	r0, r3, r0
 327 0096 9073     		strb	r0, [r2, #14]
 209:main.c        ****     resolution_zoom_map[16] = 16 - CapSense_BUTTON16_RESOLUTION_VALUE;
 328              		.loc 1 209 0
 329 0098 B920     		movs	r0, #185
 330 009a 4000     		lsls	r0, r0, #1
 331 009c 085A     		ldrh	r0, [r1, r0]
 332 009e 181A     		subs	r0, r3, r0
 333 00a0 D073     		strb	r0, [r2, #15]
 210:main.c        ****     resolution_zoom_map[17] = 16 - CapSense_BUTTON17_RESOLUTION_VALUE;
 334              		.loc 1 210 0
 335 00a2 C320     		movs	r0, #195
 336 00a4 4000     		lsls	r0, r0, #1
 337 00a6 085A     		ldrh	r0, [r1, r0]
 338 00a8 181A     		subs	r0, r3, r0
 339 00aa 1074     		strb	r0, [r2, #16]
 211:main.c        ****     resolution_zoom_map[18] = 16 - CapSense_BUTTON18_RESOLUTION_VALUE;
 340              		.loc 1 211 0
 341 00ac CD20     		movs	r0, #205
 342 00ae 4000     		lsls	r0, r0, #1
 343 00b0 085A     		ldrh	r0, [r1, r0]
 344 00b2 181A     		subs	r0, r3, r0
 345 00b4 5074     		strb	r0, [r2, #17]
 212:main.c        ****     resolution_zoom_map[19] = 16 - CapSense_BUTTON19_RESOLUTION_VALUE;
 346              		.loc 1 212 0
 347 00b6 D720     		movs	r0, #215
 348 00b8 4000     		lsls	r0, r0, #1
 349 00ba 085A     		ldrh	r0, [r1, r0]
 350 00bc 181A     		subs	r0, r3, r0
 351 00be 9074     		strb	r0, [r2, #18]
 213:main.c        ****     resolution_zoom_map[20] = 16 - CapSense_BUTTON20_RESOLUTION_VALUE;
 352              		.loc 1 213 0
 353 00c0 E120     		movs	r0, #225
 354 00c2 4000     		lsls	r0, r0, #1
 355 00c4 085A     		ldrh	r0, [r1, r0]
 356 00c6 181A     		subs	r0, r3, r0
 357 00c8 D074     		strb	r0, [r2, #19]
 214:main.c        ****     resolution_zoom_map[21] = 16 - CapSense_BUTTON21_RESOLUTION_VALUE;
 358              		.loc 1 214 0
 359 00ca EB20     		movs	r0, #235
 360 00cc 4000     		lsls	r0, r0, #1
 361 00ce 085A     		ldrh	r0, [r1, r0]
 362 00d0 181A     		subs	r0, r3, r0
 363 00d2 1075     		strb	r0, [r2, #20]
 215:main.c        ****     resolution_zoom_map[22] = 16 - CapSense_BUTTON22_RESOLUTION_VALUE;
 364              		.loc 1 215 0
ARM GAS  C:\Users\Qinh\AppData\Local\Temp\ccbmCJ4b.s 			page 22


 365 00d4 F520     		movs	r0, #245
 366 00d6 4000     		lsls	r0, r0, #1
 367 00d8 085A     		ldrh	r0, [r1, r0]
 368 00da 181A     		subs	r0, r3, r0
 369 00dc 5075     		strb	r0, [r2, #21]
 216:main.c        ****     resolution_zoom_map[23] = 16 - CapSense_BUTTON23_RESOLUTION_VALUE;
 370              		.loc 1 216 0
 371 00de FF20     		movs	r0, #255
 372 00e0 4000     		lsls	r0, r0, #1
 373 00e2 085A     		ldrh	r0, [r1, r0]
 374 00e4 181A     		subs	r0, r3, r0
 375 00e6 9075     		strb	r0, [r2, #22]
 217:main.c        ****     resolution_zoom_map[24] = 16 - CapSense_BUTTON24_RESOLUTION_VALUE;
 376              		.loc 1 217 0
 377 00e8 2348     		ldr	r0, .L64+8
 378 00ea 085A     		ldrh	r0, [r1, r0]
 379 00ec 181A     		subs	r0, r3, r0
 380 00ee D075     		strb	r0, [r2, #23]
 218:main.c        ****     resolution_zoom_map[25] = 16 - CapSense_BUTTON25_RESOLUTION_VALUE;
 381              		.loc 1 218 0
 382 00f0 2248     		ldr	r0, .L64+12
 383 00f2 085A     		ldrh	r0, [r1, r0]
 384 00f4 181A     		subs	r0, r3, r0
 385 00f6 1076     		strb	r0, [r2, #24]
 219:main.c        ****     resolution_zoom_map[26] = 16 - CapSense_BUTTON26_RESOLUTION_VALUE;
 386              		.loc 1 219 0
 387 00f8 2148     		ldr	r0, .L64+16
 388 00fa 085A     		ldrh	r0, [r1, r0]
 389 00fc 181A     		subs	r0, r3, r0
 390 00fe 5076     		strb	r0, [r2, #25]
 220:main.c        ****     resolution_zoom_map[27] = 16 - CapSense_BUTTON27_RESOLUTION_VALUE;
 391              		.loc 1 220 0
 392 0100 2048     		ldr	r0, .L64+20
 393 0102 085A     		ldrh	r0, [r1, r0]
 394 0104 181A     		subs	r0, r3, r0
 395 0106 9076     		strb	r0, [r2, #26]
 221:main.c        ****     resolution_zoom_map[28] = 16 - CapSense_BUTTON28_RESOLUTION_VALUE;
 396              		.loc 1 221 0
 397 0108 1F48     		ldr	r0, .L64+24
 398 010a 085A     		ldrh	r0, [r1, r0]
 399 010c 181A     		subs	r0, r3, r0
 400 010e D076     		strb	r0, [r2, #27]
 222:main.c        ****     resolution_zoom_map[29] = 16 - CapSense_BUTTON29_RESOLUTION_VALUE;
 401              		.loc 1 222 0
 402 0110 1E48     		ldr	r0, .L64+28
 403 0112 085A     		ldrh	r0, [r1, r0]
 404 0114 181A     		subs	r0, r3, r0
 405 0116 1077     		strb	r0, [r2, #28]
 223:main.c        ****     resolution_zoom_map[30] = 16 - CapSense_BUTTON30_RESOLUTION_VALUE;
 406              		.loc 1 223 0
 407 0118 1D48     		ldr	r0, .L64+32
 408 011a 085A     		ldrh	r0, [r1, r0]
 409 011c 181A     		subs	r0, r3, r0
 410 011e 5077     		strb	r0, [r2, #29]
 224:main.c        ****     resolution_zoom_map[31] = 16 - CapSense_BUTTON31_RESOLUTION_VALUE;
 411              		.loc 1 224 0
 412 0120 1C48     		ldr	r0, .L64+36
ARM GAS  C:\Users\Qinh\AppData\Local\Temp\ccbmCJ4b.s 			page 23


 413 0122 085A     		ldrh	r0, [r1, r0]
 414 0124 181A     		subs	r0, r3, r0
 415 0126 9077     		strb	r0, [r2, #30]
 225:main.c        ****     resolution_zoom_map[32] = 16 - CapSense_BUTTON32_RESOLUTION_VALUE;
 416              		.loc 1 225 0
 417 0128 1B48     		ldr	r0, .L64+40
 418 012a 085A     		ldrh	r0, [r1, r0]
 419 012c 181A     		subs	r0, r3, r0
 420 012e D077     		strb	r0, [r2, #31]
 226:main.c        ****     resolution_zoom_map[33] = 16 - CapSense_BUTTON33_RESOLUTION_VALUE;
 421              		.loc 1 226 0
 422 0130 1A48     		ldr	r0, .L64+44
 423 0132 085A     		ldrh	r0, [r1, r0]
 424 0134 181A     		subs	r0, r3, r0
 425 0136 2024     		movs	r4, #32
 426 0138 1055     		strb	r0, [r2, r4]
 227:main.c        ****     for(;;)
 427              		.loc 1 227 0
 428 013a 1948     		ldr	r0, .L64+48
 429 013c 095A     		ldrh	r1, [r1, r0]
 430 013e 5B1A     		subs	r3, r3, r1
 431 0140 2121     		movs	r1, #33
 432 0142 5354     		strb	r3, [r2, r1]
 173:main.c        ****     
 433              		.loc 1 173 0
 434 0144 0025     		movs	r5, #0
 164:main.c        ****     
 435              		.loc 1 164 0
 436 0146 1F3C     		subs	r4, r4, #31
 437 0148 03E0     		b	.L15
 438              	.LVL17:
 439              	.L62:
 556:main.c        ****                     }
 440              		.loc 1 556 0
 441 014a 0025     		movs	r5, #0
 442              	.LVL18:
 606:main.c        ****                 deviceScanMode = FAST_SCAN_MODE; 
 443              		.loc 1 606 0
 444 014c 0124     		movs	r4, #1
 445              	.LVL19:
 446 014e 00E0     		b	.L15
 447              	.LVL20:
 448              	.L63:
 449 0150 0124     		movs	r4, #1
 450              	.LVL21:
 451              	.L15:
 231:main.c        ****         {
 452              		.loc 1 231 0
 453 0152 022C     		cmp	r4, #2
 454 0154 00D1     		bne	.LCB357
 455 0156 7AE1     		b	.L17	@long jump
 456              	.LCB357:
 457 0158 02D8     		bhi	.L18
 458 015a 012C     		cmp	r4, #1
 459 015c 22D0     		beq	.L19
 460 015e 9CE2     		b	.L16
 461              	.L18:
ARM GAS  C:\Users\Qinh\AppData\Local\Temp\ccbmCJ4b.s 			page 24


 462 0160 032C     		cmp	r4, #3
 463 0162 00D1     		bne	.LCB367
 464 0164 84E1     		b	.L20	@long jump
 465              	.LCB367:
 466 0166 042C     		cmp	r4, #4
 467 0168 00D1     		bne	.LCB369
 468 016a 8AE2     		b	.L21	@long jump
 469              	.LCB369:
 470 016c 95E2     		b	.L16
 471              	.L65:
 472 016e C046     		.align	2
 473              	.L64:
 474 0170 00000000 		.word	CapSense_dsRam
 475 0174 00000000 		.word	resolution_zoom_map
 476 0178 12020000 		.word	530
 477 017c 26020000 		.word	550
 478 0180 3A020000 		.word	570
 479 0184 4E020000 		.word	590
 480 0188 62020000 		.word	610
 481 018c 76020000 		.word	630
 482 0190 8A020000 		.word	650
 483 0194 9E020000 		.word	670
 484 0198 B2020000 		.word	690
 485 019c C6020000 		.word	710
 486 01a0 DA020000 		.word	730
 487              	.L19:
 235:main.c        ****                 {
 488              		.loc 1 235 0
 489 01a4 FFF7FEFF 		bl	CapSense_IsBusy
 490              	.LVL22:
 491 01a8 0028     		cmp	r0, #0
 492 01aa D2D1     		bne	.L15
 252:main.c        ****                     CapSense_CSDScanExt();
 493              		.loc 1 252 0
 494 01ac 0021     		movs	r1, #0
 495 01ae FFF7FEFF 		bl	CapSense_CSDSetupWidgetExt
 496              	.LVL23:
 253:main.c        ****                     while(CapSense_IsBusy());
 497              		.loc 1 253 0
 498 01b2 FFF7FEFF 		bl	CapSense_CSDScanExt
 499              	.LVL24:
 500              	.L23:
 254:main.c        ****                     CapSense_CSDSetupWidgetExt(CapSense_BUTTON1_WDGT_ID, CapSense_BUTTON1_SNS0_ID);
 501              		.loc 1 254 0 discriminator 1
 502 01b6 FFF7FEFF 		bl	CapSense_IsBusy
 503              	.LVL25:
 504 01ba 0028     		cmp	r0, #0
 505 01bc FBD1     		bne	.L23
 255:main.c        ****                     CapSense_CSDScanExt();
 506              		.loc 1 255 0
 507 01be 0021     		movs	r1, #0
 508 01c0 0130     		adds	r0, r0, #1
 509 01c2 FFF7FEFF 		bl	CapSense_CSDSetupWidgetExt
 510              	.LVL26:
 256:main.c        ****                     while(CapSense_IsBusy());
 511              		.loc 1 256 0
 512 01c6 FFF7FEFF 		bl	CapSense_CSDScanExt
ARM GAS  C:\Users\Qinh\AppData\Local\Temp\ccbmCJ4b.s 			page 25


 513              	.LVL27:
 514              	.L24:
 257:main.c        ****                     CapSense_CSDSetupWidgetExt(CapSense_BUTTON2_WDGT_ID, CapSense_BUTTON2_SNS0_ID);
 515              		.loc 1 257 0 discriminator 1
 516 01ca FFF7FEFF 		bl	CapSense_IsBusy
 517              	.LVL28:
 518 01ce 0028     		cmp	r0, #0
 519 01d0 FBD1     		bne	.L24
 258:main.c        ****                     CapSense_CSDScanExt();
 520              		.loc 1 258 0
 521 01d2 0021     		movs	r1, #0
 522 01d4 0230     		adds	r0, r0, #2
 523 01d6 FFF7FEFF 		bl	CapSense_CSDSetupWidgetExt
 524              	.LVL29:
 259:main.c        ****                     while(CapSense_IsBusy());
 525              		.loc 1 259 0
 526 01da FFF7FEFF 		bl	CapSense_CSDScanExt
 527              	.LVL30:
 528              	.L25:
 260:main.c        ****                     CapSense_CSDSetupWidgetExt(CapSense_BUTTON3_WDGT_ID, CapSense_BUTTON3_SNS0_ID);
 529              		.loc 1 260 0 discriminator 1
 530 01de FFF7FEFF 		bl	CapSense_IsBusy
 531              	.LVL31:
 532 01e2 0028     		cmp	r0, #0
 533 01e4 FBD1     		bne	.L25
 261:main.c        ****                     CapSense_CSDScanExt();
 534              		.loc 1 261 0
 535 01e6 0021     		movs	r1, #0
 536 01e8 0330     		adds	r0, r0, #3
 537 01ea FFF7FEFF 		bl	CapSense_CSDSetupWidgetExt
 538              	.LVL32:
 262:main.c        ****                     while(CapSense_IsBusy());
 539              		.loc 1 262 0
 540 01ee FFF7FEFF 		bl	CapSense_CSDScanExt
 541              	.LVL33:
 542              	.L26:
 263:main.c        ****                     CapSense_CSDSetupWidgetExt(CapSense_BUTTON4_WDGT_ID, CapSense_BUTTON4_SNS0_ID);
 543              		.loc 1 263 0 discriminator 1
 544 01f2 FFF7FEFF 		bl	CapSense_IsBusy
 545              	.LVL34:
 546 01f6 0028     		cmp	r0, #0
 547 01f8 FBD1     		bne	.L26
 264:main.c        ****                     CapSense_CSDScanExt();
 548              		.loc 1 264 0
 549 01fa 0021     		movs	r1, #0
 550 01fc 0430     		adds	r0, r0, #4
 551 01fe FFF7FEFF 		bl	CapSense_CSDSetupWidgetExt
 552              	.LVL35:
 265:main.c        ****                     while(CapSense_IsBusy());
 553              		.loc 1 265 0
 554 0202 FFF7FEFF 		bl	CapSense_CSDScanExt
 555              	.LVL36:
 556              	.L27:
 266:main.c        ****                     CapSense_CSDSetupWidgetExt(CapSense_BUTTON5_WDGT_ID, CapSense_BUTTON5_SNS0_ID);
 557              		.loc 1 266 0 discriminator 1
 558 0206 FFF7FEFF 		bl	CapSense_IsBusy
 559              	.LVL37:
ARM GAS  C:\Users\Qinh\AppData\Local\Temp\ccbmCJ4b.s 			page 26


 560 020a 0028     		cmp	r0, #0
 561 020c FBD1     		bne	.L27
 267:main.c        ****                     CapSense_CSDScanExt();
 562              		.loc 1 267 0
 563 020e 0021     		movs	r1, #0
 564 0210 0530     		adds	r0, r0, #5
 565 0212 FFF7FEFF 		bl	CapSense_CSDSetupWidgetExt
 566              	.LVL38:
 268:main.c        ****                     while(CapSense_IsBusy());
 567              		.loc 1 268 0
 568 0216 FFF7FEFF 		bl	CapSense_CSDScanExt
 569              	.LVL39:
 570              	.L28:
 269:main.c        ****                     CapSense_CSDSetupWidgetExt(CapSense_BUTTON6_WDGT_ID, CapSense_BUTTON6_SNS0_ID);
 571              		.loc 1 269 0 discriminator 1
 572 021a FFF7FEFF 		bl	CapSense_IsBusy
 573              	.LVL40:
 574 021e 0028     		cmp	r0, #0
 575 0220 FBD1     		bne	.L28
 270:main.c        ****                     CapSense_CSDScanExt();
 576              		.loc 1 270 0
 577 0222 0021     		movs	r1, #0
 578 0224 0630     		adds	r0, r0, #6
 579 0226 FFF7FEFF 		bl	CapSense_CSDSetupWidgetExt
 580              	.LVL41:
 271:main.c        ****                     while(CapSense_IsBusy());
 581              		.loc 1 271 0
 582 022a FFF7FEFF 		bl	CapSense_CSDScanExt
 583              	.LVL42:
 584              	.L29:
 272:main.c        ****                     CapSense_CSDSetupWidgetExt(CapSense_BUTTON7_WDGT_ID, CapSense_BUTTON7_SNS0_ID);
 585              		.loc 1 272 0 discriminator 1
 586 022e FFF7FEFF 		bl	CapSense_IsBusy
 587              	.LVL43:
 588 0232 0028     		cmp	r0, #0
 589 0234 FBD1     		bne	.L29
 273:main.c        ****                     CapSense_CSDScanExt();
 590              		.loc 1 273 0
 591 0236 0021     		movs	r1, #0
 592 0238 0730     		adds	r0, r0, #7
 593 023a FFF7FEFF 		bl	CapSense_CSDSetupWidgetExt
 594              	.LVL44:
 274:main.c        ****                     while(CapSense_IsBusy());
 595              		.loc 1 274 0
 596 023e FFF7FEFF 		bl	CapSense_CSDScanExt
 597              	.LVL45:
 598              	.L30:
 275:main.c        ****                     CapSense_CSDSetupWidgetExt(CapSense_BUTTON8_WDGT_ID, CapSense_BUTTON8_SNS0_ID);
 599              		.loc 1 275 0 discriminator 1
 600 0242 FFF7FEFF 		bl	CapSense_IsBusy
 601              	.LVL46:
 602 0246 0028     		cmp	r0, #0
 603 0248 FBD1     		bne	.L30
 276:main.c        ****                     CapSense_CSDScanExt();
 604              		.loc 1 276 0
 605 024a 0021     		movs	r1, #0
 606 024c 0830     		adds	r0, r0, #8
ARM GAS  C:\Users\Qinh\AppData\Local\Temp\ccbmCJ4b.s 			page 27


 607 024e FFF7FEFF 		bl	CapSense_CSDSetupWidgetExt
 608              	.LVL47:
 277:main.c        ****                     while(CapSense_IsBusy());
 609              		.loc 1 277 0
 610 0252 FFF7FEFF 		bl	CapSense_CSDScanExt
 611              	.LVL48:
 612              	.L31:
 278:main.c        ****                     CapSense_CSDSetupWidgetExt(CapSense_BUTTON9_WDGT_ID, CapSense_BUTTON9_SNS0_ID);
 613              		.loc 1 278 0 discriminator 1
 614 0256 FFF7FEFF 		bl	CapSense_IsBusy
 615              	.LVL49:
 616 025a 0028     		cmp	r0, #0
 617 025c FBD1     		bne	.L31
 279:main.c        ****                     CapSense_CSDScanExt();
 618              		.loc 1 279 0
 619 025e 0021     		movs	r1, #0
 620 0260 0930     		adds	r0, r0, #9
 621 0262 FFF7FEFF 		bl	CapSense_CSDSetupWidgetExt
 622              	.LVL50:
 280:main.c        ****                     while(CapSense_IsBusy());
 623              		.loc 1 280 0
 624 0266 FFF7FEFF 		bl	CapSense_CSDScanExt
 625              	.LVL51:
 626              	.L32:
 281:main.c        ****                     CapSense_CSDSetupWidgetExt(CapSense_BUTTON10_WDGT_ID, CapSense_BUTTON10_SNS0_ID
 627              		.loc 1 281 0 discriminator 1
 628 026a FFF7FEFF 		bl	CapSense_IsBusy
 629              	.LVL52:
 630 026e 0028     		cmp	r0, #0
 631 0270 FBD1     		bne	.L32
 282:main.c        ****                     CapSense_CSDScanExt();
 632              		.loc 1 282 0
 633 0272 0021     		movs	r1, #0
 634 0274 0A30     		adds	r0, r0, #10
 635 0276 FFF7FEFF 		bl	CapSense_CSDSetupWidgetExt
 636              	.LVL53:
 283:main.c        ****                     while(CapSense_IsBusy());
 637              		.loc 1 283 0
 638 027a FFF7FEFF 		bl	CapSense_CSDScanExt
 639              	.LVL54:
 640              	.L33:
 284:main.c        ****                     CapSense_CSDSetupWidgetExt(CapSense_BUTTON11_WDGT_ID, CapSense_BUTTON11_SNS0_ID
 641              		.loc 1 284 0 discriminator 1
 642 027e FFF7FEFF 		bl	CapSense_IsBusy
 643              	.LVL55:
 644 0282 0028     		cmp	r0, #0
 645 0284 FBD1     		bne	.L33
 285:main.c        ****                     CapSense_CSDScanExt();
 646              		.loc 1 285 0
 647 0286 0021     		movs	r1, #0
 648 0288 0B30     		adds	r0, r0, #11
 649 028a FFF7FEFF 		bl	CapSense_CSDSetupWidgetExt
 650              	.LVL56:
 286:main.c        ****                     while(CapSense_IsBusy());
 651              		.loc 1 286 0
 652 028e FFF7FEFF 		bl	CapSense_CSDScanExt
 653              	.LVL57:
ARM GAS  C:\Users\Qinh\AppData\Local\Temp\ccbmCJ4b.s 			page 28


 654              	.L34:
 287:main.c        ****                     CapSense_CSDSetupWidgetExt(CapSense_BUTTON12_WDGT_ID, CapSense_BUTTON12_SNS0_ID
 655              		.loc 1 287 0 discriminator 1
 656 0292 FFF7FEFF 		bl	CapSense_IsBusy
 657              	.LVL58:
 658 0296 0028     		cmp	r0, #0
 659 0298 FBD1     		bne	.L34
 288:main.c        ****                     CapSense_CSDScanExt();
 660              		.loc 1 288 0
 661 029a 0021     		movs	r1, #0
 662 029c 0C30     		adds	r0, r0, #12
 663 029e FFF7FEFF 		bl	CapSense_CSDSetupWidgetExt
 664              	.LVL59:
 289:main.c        ****                     while(CapSense_IsBusy());
 665              		.loc 1 289 0
 666 02a2 FFF7FEFF 		bl	CapSense_CSDScanExt
 667              	.LVL60:
 668              	.L35:
 290:main.c        ****                     CapSense_CSDSetupWidgetExt(CapSense_BUTTON13_WDGT_ID, CapSense_BUTTON13_SNS0_ID
 669              		.loc 1 290 0 discriminator 1
 670 02a6 FFF7FEFF 		bl	CapSense_IsBusy
 671              	.LVL61:
 672 02aa 0028     		cmp	r0, #0
 673 02ac FBD1     		bne	.L35
 291:main.c        ****                     CapSense_CSDScanExt();
 674              		.loc 1 291 0
 675 02ae 0021     		movs	r1, #0
 676 02b0 0D30     		adds	r0, r0, #13
 677 02b2 FFF7FEFF 		bl	CapSense_CSDSetupWidgetExt
 678              	.LVL62:
 292:main.c        ****                     while(CapSense_IsBusy());
 679              		.loc 1 292 0
 680 02b6 FFF7FEFF 		bl	CapSense_CSDScanExt
 681              	.LVL63:
 682              	.L36:
 293:main.c        ****                     CapSense_CSDSetupWidgetExt(CapSense_BUTTON14_WDGT_ID, CapSense_BUTTON14_SNS0_ID
 683              		.loc 1 293 0 discriminator 1
 684 02ba FFF7FEFF 		bl	CapSense_IsBusy
 685              	.LVL64:
 686 02be 0028     		cmp	r0, #0
 687 02c0 FBD1     		bne	.L36
 294:main.c        ****                     CapSense_CSDScanExt();
 688              		.loc 1 294 0
 689 02c2 0021     		movs	r1, #0
 690 02c4 0E30     		adds	r0, r0, #14
 691 02c6 FFF7FEFF 		bl	CapSense_CSDSetupWidgetExt
 692              	.LVL65:
 295:main.c        ****                     while(CapSense_IsBusy());
 693              		.loc 1 295 0
 694 02ca FFF7FEFF 		bl	CapSense_CSDScanExt
 695              	.LVL66:
 696              	.L37:
 296:main.c        ****                     CapSense_CSDSetupWidgetExt(CapSense_BUTTON15_WDGT_ID, CapSense_BUTTON15_SNS0_ID
 697              		.loc 1 296 0 discriminator 1
 698 02ce FFF7FEFF 		bl	CapSense_IsBusy
 699              	.LVL67:
 700 02d2 0028     		cmp	r0, #0
ARM GAS  C:\Users\Qinh\AppData\Local\Temp\ccbmCJ4b.s 			page 29


 701 02d4 FBD1     		bne	.L37
 297:main.c        ****                     CapSense_CSDScanExt();
 702              		.loc 1 297 0
 703 02d6 0021     		movs	r1, #0
 704 02d8 0F30     		adds	r0, r0, #15
 705 02da FFF7FEFF 		bl	CapSense_CSDSetupWidgetExt
 706              	.LVL68:
 298:main.c        ****                     while(CapSense_IsBusy());
 707              		.loc 1 298 0
 708 02de FFF7FEFF 		bl	CapSense_CSDScanExt
 709              	.LVL69:
 710              	.L38:
 299:main.c        ****                     CapSense_CSDSetupWidgetExt(CapSense_BUTTON16_WDGT_ID, CapSense_BUTTON16_SNS0_ID
 711              		.loc 1 299 0 discriminator 1
 712 02e2 FFF7FEFF 		bl	CapSense_IsBusy
 713              	.LVL70:
 714 02e6 0028     		cmp	r0, #0
 715 02e8 FBD1     		bne	.L38
 300:main.c        ****                     CapSense_CSDScanExt();
 716              		.loc 1 300 0
 717 02ea 0021     		movs	r1, #0
 718 02ec 1030     		adds	r0, r0, #16
 719 02ee FFF7FEFF 		bl	CapSense_CSDSetupWidgetExt
 720              	.LVL71:
 301:main.c        ****                     while(CapSense_IsBusy());
 721              		.loc 1 301 0
 722 02f2 FFF7FEFF 		bl	CapSense_CSDScanExt
 723              	.LVL72:
 724              	.L39:
 302:main.c        ****                     CapSense_CSDSetupWidgetExt(CapSense_BUTTON17_WDGT_ID, CapSense_BUTTON17_SNS0_ID
 725              		.loc 1 302 0 discriminator 1
 726 02f6 FFF7FEFF 		bl	CapSense_IsBusy
 727              	.LVL73:
 728 02fa 0028     		cmp	r0, #0
 729 02fc FBD1     		bne	.L39
 303:main.c        ****                     CapSense_CSDScanExt();
 730              		.loc 1 303 0
 731 02fe 0021     		movs	r1, #0
 732 0300 1130     		adds	r0, r0, #17
 733 0302 FFF7FEFF 		bl	CapSense_CSDSetupWidgetExt
 734              	.LVL74:
 304:main.c        ****                     while(CapSense_IsBusy());
 735              		.loc 1 304 0
 736 0306 FFF7FEFF 		bl	CapSense_CSDScanExt
 737              	.LVL75:
 738              	.L40:
 305:main.c        ****                     CapSense_CSDSetupWidgetExt(CapSense_BUTTON18_WDGT_ID, CapSense_BUTTON18_SNS0_ID
 739              		.loc 1 305 0 discriminator 1
 740 030a FFF7FEFF 		bl	CapSense_IsBusy
 741              	.LVL76:
 742 030e 0028     		cmp	r0, #0
 743 0310 FBD1     		bne	.L40
 306:main.c        ****                     CapSense_CSDScanExt();
 744              		.loc 1 306 0
 745 0312 0021     		movs	r1, #0
 746 0314 1230     		adds	r0, r0, #18
 747 0316 FFF7FEFF 		bl	CapSense_CSDSetupWidgetExt
ARM GAS  C:\Users\Qinh\AppData\Local\Temp\ccbmCJ4b.s 			page 30


 748              	.LVL77:
 307:main.c        ****                     while(CapSense_IsBusy());
 749              		.loc 1 307 0
 750 031a FFF7FEFF 		bl	CapSense_CSDScanExt
 751              	.LVL78:
 752              	.L41:
 308:main.c        ****                     CapSense_CSDSetupWidgetExt(CapSense_BUTTON19_WDGT_ID, CapSense_BUTTON19_SNS0_ID
 753              		.loc 1 308 0 discriminator 1
 754 031e FFF7FEFF 		bl	CapSense_IsBusy
 755              	.LVL79:
 756 0322 0028     		cmp	r0, #0
 757 0324 FBD1     		bne	.L41
 309:main.c        ****                     CapSense_CSDScanExt();
 758              		.loc 1 309 0
 759 0326 0021     		movs	r1, #0
 760 0328 1330     		adds	r0, r0, #19
 761 032a FFF7FEFF 		bl	CapSense_CSDSetupWidgetExt
 762              	.LVL80:
 310:main.c        ****                     while(CapSense_IsBusy());
 763              		.loc 1 310 0
 764 032e FFF7FEFF 		bl	CapSense_CSDScanExt
 765              	.LVL81:
 766              	.L42:
 311:main.c        ****                     CapSense_CSDSetupWidgetExt(CapSense_BUTTON20_WDGT_ID, CapSense_BUTTON20_SNS0_ID
 767              		.loc 1 311 0 discriminator 1
 768 0332 FFF7FEFF 		bl	CapSense_IsBusy
 769              	.LVL82:
 770 0336 0028     		cmp	r0, #0
 771 0338 FBD1     		bne	.L42
 312:main.c        ****                     CapSense_CSDScanExt();
 772              		.loc 1 312 0
 773 033a 0021     		movs	r1, #0
 774 033c 1430     		adds	r0, r0, #20
 775 033e FFF7FEFF 		bl	CapSense_CSDSetupWidgetExt
 776              	.LVL83:
 313:main.c        ****                     while(CapSense_IsBusy());
 777              		.loc 1 313 0
 778 0342 FFF7FEFF 		bl	CapSense_CSDScanExt
 779              	.LVL84:
 780              	.L43:
 314:main.c        ****                     CapSense_CSDSetupWidgetExt(CapSense_BUTTON21_WDGT_ID, CapSense_BUTTON21_SNS0_ID
 781              		.loc 1 314 0 discriminator 1
 782 0346 FFF7FEFF 		bl	CapSense_IsBusy
 783              	.LVL85:
 784 034a 0028     		cmp	r0, #0
 785 034c FBD1     		bne	.L43
 315:main.c        ****                     CapSense_CSDScanExt();
 786              		.loc 1 315 0
 787 034e 0021     		movs	r1, #0
 788 0350 1530     		adds	r0, r0, #21
 789 0352 FFF7FEFF 		bl	CapSense_CSDSetupWidgetExt
 790              	.LVL86:
 316:main.c        ****                     while(CapSense_IsBusy());
 791              		.loc 1 316 0
 792 0356 FFF7FEFF 		bl	CapSense_CSDScanExt
 793              	.LVL87:
 794              	.L44:
ARM GAS  C:\Users\Qinh\AppData\Local\Temp\ccbmCJ4b.s 			page 31


 317:main.c        ****                     CapSense_CSDSetupWidgetExt(CapSense_BUTTON22_WDGT_ID, CapSense_BUTTON22_SNS0_ID
 795              		.loc 1 317 0 discriminator 1
 796 035a FFF7FEFF 		bl	CapSense_IsBusy
 797              	.LVL88:
 798 035e 0028     		cmp	r0, #0
 799 0360 FBD1     		bne	.L44
 318:main.c        ****                     CapSense_CSDScanExt();
 800              		.loc 1 318 0
 801 0362 0021     		movs	r1, #0
 802 0364 1630     		adds	r0, r0, #22
 803 0366 FFF7FEFF 		bl	CapSense_CSDSetupWidgetExt
 804              	.LVL89:
 319:main.c        ****                     while(CapSense_IsBusy());
 805              		.loc 1 319 0
 806 036a FFF7FEFF 		bl	CapSense_CSDScanExt
 807              	.LVL90:
 808              	.L45:
 320:main.c        ****                     CapSense_CSDSetupWidgetExt(CapSense_BUTTON23_WDGT_ID, CapSense_BUTTON23_SNS0_ID
 809              		.loc 1 320 0 discriminator 1
 810 036e FFF7FEFF 		bl	CapSense_IsBusy
 811              	.LVL91:
 812 0372 0028     		cmp	r0, #0
 813 0374 FBD1     		bne	.L45
 321:main.c        ****                     CapSense_CSDScanExt();
 814              		.loc 1 321 0
 815 0376 0021     		movs	r1, #0
 816 0378 1730     		adds	r0, r0, #23
 817 037a FFF7FEFF 		bl	CapSense_CSDSetupWidgetExt
 818              	.LVL92:
 322:main.c        ****                     while(CapSense_IsBusy());
 819              		.loc 1 322 0
 820 037e FFF7FEFF 		bl	CapSense_CSDScanExt
 821              	.LVL93:
 822              	.L46:
 323:main.c        ****                     CapSense_CSDSetupWidgetExt(CapSense_BUTTON24_WDGT_ID, CapSense_BUTTON24_SNS0_ID
 823              		.loc 1 323 0 discriminator 1
 824 0382 FFF7FEFF 		bl	CapSense_IsBusy
 825              	.LVL94:
 826 0386 0028     		cmp	r0, #0
 827 0388 FBD1     		bne	.L46
 324:main.c        ****                     CapSense_CSDScanExt();
 828              		.loc 1 324 0
 829 038a 0021     		movs	r1, #0
 830 038c 1830     		adds	r0, r0, #24
 831 038e FFF7FEFF 		bl	CapSense_CSDSetupWidgetExt
 832              	.LVL95:
 325:main.c        ****                     while(CapSense_IsBusy());
 833              		.loc 1 325 0
 834 0392 FFF7FEFF 		bl	CapSense_CSDScanExt
 835              	.LVL96:
 836              	.L47:
 326:main.c        ****                     CapSense_CSDSetupWidgetExt(CapSense_BUTTON25_WDGT_ID, CapSense_BUTTON25_SNS0_ID
 837              		.loc 1 326 0 discriminator 1
 838 0396 FFF7FEFF 		bl	CapSense_IsBusy
 839              	.LVL97:
 840 039a 0028     		cmp	r0, #0
 841 039c FBD1     		bne	.L47
ARM GAS  C:\Users\Qinh\AppData\Local\Temp\ccbmCJ4b.s 			page 32


 327:main.c        ****                     CapSense_CSDScanExt();
 842              		.loc 1 327 0
 843 039e 0021     		movs	r1, #0
 844 03a0 1930     		adds	r0, r0, #25
 845 03a2 FFF7FEFF 		bl	CapSense_CSDSetupWidgetExt
 846              	.LVL98:
 328:main.c        ****                     while(CapSense_IsBusy());
 847              		.loc 1 328 0
 848 03a6 FFF7FEFF 		bl	CapSense_CSDScanExt
 849              	.LVL99:
 850              	.L48:
 329:main.c        ****                     CapSense_CSDSetupWidgetExt(CapSense_BUTTON26_WDGT_ID, CapSense_BUTTON26_SNS0_ID
 851              		.loc 1 329 0 discriminator 1
 852 03aa FFF7FEFF 		bl	CapSense_IsBusy
 853              	.LVL100:
 854 03ae 0028     		cmp	r0, #0
 855 03b0 FBD1     		bne	.L48
 330:main.c        ****                     CapSense_CSDScanExt();
 856              		.loc 1 330 0
 857 03b2 0021     		movs	r1, #0
 858 03b4 1A30     		adds	r0, r0, #26
 859 03b6 FFF7FEFF 		bl	CapSense_CSDSetupWidgetExt
 860              	.LVL101:
 331:main.c        ****                     while(CapSense_IsBusy());
 861              		.loc 1 331 0
 862 03ba FFF7FEFF 		bl	CapSense_CSDScanExt
 863              	.LVL102:
 864              	.L49:
 332:main.c        ****                     CapSense_CSDSetupWidgetExt(CapSense_BUTTON27_WDGT_ID, CapSense_BUTTON27_SNS0_ID
 865              		.loc 1 332 0 discriminator 1
 866 03be FFF7FEFF 		bl	CapSense_IsBusy
 867              	.LVL103:
 868 03c2 0028     		cmp	r0, #0
 869 03c4 FBD1     		bne	.L49
 333:main.c        ****                     CapSense_CSDScanExt();
 870              		.loc 1 333 0
 871 03c6 0021     		movs	r1, #0
 872 03c8 1B30     		adds	r0, r0, #27
 873 03ca FFF7FEFF 		bl	CapSense_CSDSetupWidgetExt
 874              	.LVL104:
 334:main.c        ****                     while(CapSense_IsBusy());
 875              		.loc 1 334 0
 876 03ce FFF7FEFF 		bl	CapSense_CSDScanExt
 877              	.LVL105:
 878              	.L50:
 335:main.c        ****                     CapSense_CSDSetupWidgetExt(CapSense_BUTTON28_WDGT_ID, CapSense_BUTTON28_SNS0_ID
 879              		.loc 1 335 0 discriminator 1
 880 03d2 FFF7FEFF 		bl	CapSense_IsBusy
 881              	.LVL106:
 882 03d6 0028     		cmp	r0, #0
 883 03d8 FBD1     		bne	.L50
 336:main.c        ****                     CapSense_CSDScanExt();
 884              		.loc 1 336 0
 885 03da 0021     		movs	r1, #0
 886 03dc 1C30     		adds	r0, r0, #28
 887 03de FFF7FEFF 		bl	CapSense_CSDSetupWidgetExt
 888              	.LVL107:
ARM GAS  C:\Users\Qinh\AppData\Local\Temp\ccbmCJ4b.s 			page 33


 337:main.c        ****                     while(CapSense_IsBusy());
 889              		.loc 1 337 0
 890 03e2 FFF7FEFF 		bl	CapSense_CSDScanExt
 891              	.LVL108:
 892              	.L51:
 338:main.c        ****                     CapSense_CSDSetupWidgetExt(CapSense_BUTTON29_WDGT_ID, CapSense_BUTTON29_SNS0_ID
 893              		.loc 1 338 0 discriminator 1
 894 03e6 FFF7FEFF 		bl	CapSense_IsBusy
 895              	.LVL109:
 896 03ea 0028     		cmp	r0, #0
 897 03ec FBD1     		bne	.L51
 339:main.c        ****                     CapSense_CSDScanExt();
 898              		.loc 1 339 0
 899 03ee 0021     		movs	r1, #0
 900 03f0 1D30     		adds	r0, r0, #29
 901 03f2 FFF7FEFF 		bl	CapSense_CSDSetupWidgetExt
 902              	.LVL110:
 340:main.c        ****                     while(CapSense_IsBusy());
 903              		.loc 1 340 0
 904 03f6 FFF7FEFF 		bl	CapSense_CSDScanExt
 905              	.LVL111:
 906              	.L52:
 341:main.c        ****                     CapSense_CSDSetupWidgetExt(CapSense_BUTTON30_WDGT_ID, CapSense_BUTTON30_SNS0_ID
 907              		.loc 1 341 0 discriminator 1
 908 03fa FFF7FEFF 		bl	CapSense_IsBusy
 909              	.LVL112:
 910 03fe 0028     		cmp	r0, #0
 911 0400 FBD1     		bne	.L52
 342:main.c        ****                     CapSense_CSDScanExt();
 912              		.loc 1 342 0
 913 0402 0021     		movs	r1, #0
 914 0404 1E30     		adds	r0, r0, #30
 915 0406 FFF7FEFF 		bl	CapSense_CSDSetupWidgetExt
 916              	.LVL113:
 343:main.c        ****                     while(CapSense_IsBusy());
 917              		.loc 1 343 0
 918 040a FFF7FEFF 		bl	CapSense_CSDScanExt
 919              	.LVL114:
 920              	.L53:
 344:main.c        ****                     CapSense_CSDSetupWidgetExt(CapSense_BUTTON31_WDGT_ID, CapSense_BUTTON31_SNS0_ID
 921              		.loc 1 344 0 discriminator 1
 922 040e FFF7FEFF 		bl	CapSense_IsBusy
 923              	.LVL115:
 924 0412 0028     		cmp	r0, #0
 925 0414 FBD1     		bne	.L53
 345:main.c        ****                     CapSense_CSDScanExt();
 926              		.loc 1 345 0
 927 0416 0021     		movs	r1, #0
 928 0418 1F30     		adds	r0, r0, #31
 929 041a FFF7FEFF 		bl	CapSense_CSDSetupWidgetExt
 930              	.LVL116:
 346:main.c        ****                     while(CapSense_IsBusy());
 931              		.loc 1 346 0
 932 041e FFF7FEFF 		bl	CapSense_CSDScanExt
 933              	.LVL117:
 934              	.L54:
 347:main.c        ****                     CapSense_CSDSetupWidgetExt(CapSense_BUTTON32_WDGT_ID, CapSense_BUTTON31_SNS0_ID
ARM GAS  C:\Users\Qinh\AppData\Local\Temp\ccbmCJ4b.s 			page 34


 935              		.loc 1 347 0 discriminator 1
 936 0422 FFF7FEFF 		bl	CapSense_IsBusy
 937              	.LVL118:
 938 0426 0028     		cmp	r0, #0
 939 0428 FBD1     		bne	.L54
 348:main.c        ****                     CapSense_CSDScanExt();
 940              		.loc 1 348 0
 941 042a 0021     		movs	r1, #0
 942 042c 2030     		adds	r0, r0, #32
 943 042e FFF7FEFF 		bl	CapSense_CSDSetupWidgetExt
 944              	.LVL119:
 349:main.c        ****                     while(CapSense_IsBusy());
 945              		.loc 1 349 0
 946 0432 FFF7FEFF 		bl	CapSense_CSDScanExt
 947              	.LVL120:
 948              	.L55:
 350:main.c        ****                     CapSense_CSDSetupWidgetExt(CapSense_BUTTON33_WDGT_ID, CapSense_BUTTON31_SNS0_ID
 949              		.loc 1 350 0 discriminator 1
 950 0436 FFF7FEFF 		bl	CapSense_IsBusy
 951              	.LVL121:
 952 043a 0028     		cmp	r0, #0
 953 043c FBD1     		bne	.L55
 351:main.c        ****                     CapSense_CSDScanExt();
 954              		.loc 1 351 0
 955 043e 0021     		movs	r1, #0
 956 0440 2130     		adds	r0, r0, #33
 957 0442 FFF7FEFF 		bl	CapSense_CSDSetupWidgetExt
 958              	.LVL122:
 352:main.c        **** 
 959              		.loc 1 352 0
 960 0446 FFF7FEFF 		bl	CapSense_CSDScanExt
 961              	.LVL123:
 356:main.c        ****                 }
 962              		.loc 1 356 0
 963 044a 0224     		movs	r4, #2
 964 044c 81E6     		b	.L15
 965              	.LVL124:
 966              	.L17:
 367:main.c        ****                 
 967              		.loc 1 367 0
 968 044e FFF7FEFF 		bl	CyEnterCriticalSection
 969              	.LVL125:
 970 0452 944B     		ldr	r3, .L66
 971 0454 1860     		str	r0, [r3]
 370:main.c        ****                 {
 972              		.loc 1 370 0
 973 0456 FFF7FEFF 		bl	CapSense_IsBusy
 974              	.LVL126:
 975 045a 0028     		cmp	r0, #0
 976 045c 02D0     		beq	.L61
 373:main.c        ****                 }
 977              		.loc 1 373 0
 978 045e FFF7FEFF 		bl	CySysPmSleep
 979              	.LVL127:
 980 0462 00E0     		b	.L56
 981              	.L61:
 378:main.c        ****                 }
ARM GAS  C:\Users\Qinh\AppData\Local\Temp\ccbmCJ4b.s 			page 35


 982              		.loc 1 378 0
 983 0464 0324     		movs	r4, #3
 984              	.LVL128:
 985              	.L56:
 381:main.c        ****                 break;
 986              		.loc 1 381 0
 987 0466 8F4B     		ldr	r3, .L66
 988 0468 1878     		ldrb	r0, [r3]
 989 046a FFF7FEFF 		bl	CyExitCriticalSection
 990              	.LVL129:
 382:main.c        ****             
 991              		.loc 1 382 0
 992 046e 70E6     		b	.L15
 993              	.L20:
 994              	.LVL130:
 391:main.c        ****             CapSense_ProcessWidget(CapSense_BUTTON1_WDGT_ID);
 995              		.loc 1 391 0
 996 0470 0020     		movs	r0, #0
 997 0472 FFF7FEFF 		bl	CapSense_ProcessWidget
 998              	.LVL131:
 392:main.c        ****             CapSense_ProcessWidget(CapSense_BUTTON2_WDGT_ID);
 999              		.loc 1 392 0
 1000 0476 0120     		movs	r0, #1
 1001 0478 FFF7FEFF 		bl	CapSense_ProcessWidget
 1002              	.LVL132:
 393:main.c        ****             CapSense_ProcessWidget(CapSense_BUTTON3_WDGT_ID);
 1003              		.loc 1 393 0
 1004 047c 0220     		movs	r0, #2
 1005 047e FFF7FEFF 		bl	CapSense_ProcessWidget
 1006              	.LVL133:
 394:main.c        ****             CapSense_ProcessWidget(CapSense_BUTTON4_WDGT_ID);
 1007              		.loc 1 394 0
 1008 0482 0320     		movs	r0, #3
 1009 0484 FFF7FEFF 		bl	CapSense_ProcessWidget
 1010              	.LVL134:
 395:main.c        ****             CapSense_ProcessWidget(CapSense_BUTTON5_WDGT_ID);
 1011              		.loc 1 395 0
 1012 0488 0420     		movs	r0, #4
 1013 048a FFF7FEFF 		bl	CapSense_ProcessWidget
 1014              	.LVL135:
 396:main.c        ****             CapSense_ProcessWidget(CapSense_BUTTON6_WDGT_ID);
 1015              		.loc 1 396 0
 1016 048e 0520     		movs	r0, #5
 1017 0490 FFF7FEFF 		bl	CapSense_ProcessWidget
 1018              	.LVL136:
 397:main.c        ****             CapSense_ProcessWidget(CapSense_BUTTON7_WDGT_ID);
 1019              		.loc 1 397 0
 1020 0494 0620     		movs	r0, #6
 1021 0496 FFF7FEFF 		bl	CapSense_ProcessWidget
 1022              	.LVL137:
 398:main.c        ****             CapSense_ProcessWidget(CapSense_BUTTON8_WDGT_ID);
 1023              		.loc 1 398 0
 1024 049a 0720     		movs	r0, #7
 1025 049c FFF7FEFF 		bl	CapSense_ProcessWidget
 1026              	.LVL138:
 399:main.c        ****             CapSense_ProcessWidget(CapSense_BUTTON9_WDGT_ID);
 1027              		.loc 1 399 0
ARM GAS  C:\Users\Qinh\AppData\Local\Temp\ccbmCJ4b.s 			page 36


 1028 04a0 0820     		movs	r0, #8
 1029 04a2 FFF7FEFF 		bl	CapSense_ProcessWidget
 1030              	.LVL139:
 400:main.c        ****             CapSense_ProcessWidget(CapSense_BUTTON10_WDGT_ID);
 1031              		.loc 1 400 0
 1032 04a6 0920     		movs	r0, #9
 1033 04a8 FFF7FEFF 		bl	CapSense_ProcessWidget
 1034              	.LVL140:
 401:main.c        ****             CapSense_ProcessWidget(CapSense_BUTTON11_WDGT_ID);
 1035              		.loc 1 401 0
 1036 04ac 0A20     		movs	r0, #10
 1037 04ae FFF7FEFF 		bl	CapSense_ProcessWidget
 1038              	.LVL141:
 402:main.c        ****             CapSense_ProcessWidget(CapSense_BUTTON12_WDGT_ID);
 1039              		.loc 1 402 0
 1040 04b2 0B20     		movs	r0, #11
 1041 04b4 FFF7FEFF 		bl	CapSense_ProcessWidget
 1042              	.LVL142:
 403:main.c        ****             CapSense_ProcessWidget(CapSense_BUTTON13_WDGT_ID);
 1043              		.loc 1 403 0
 1044 04b8 0C20     		movs	r0, #12
 1045 04ba FFF7FEFF 		bl	CapSense_ProcessWidget
 1046              	.LVL143:
 404:main.c        ****             CapSense_ProcessWidget(CapSense_BUTTON14_WDGT_ID);
 1047              		.loc 1 404 0
 1048 04be 0D20     		movs	r0, #13
 1049 04c0 FFF7FEFF 		bl	CapSense_ProcessWidget
 1050              	.LVL144:
 405:main.c        ****             CapSense_ProcessWidget(CapSense_BUTTON15_WDGT_ID);
 1051              		.loc 1 405 0
 1052 04c4 0E20     		movs	r0, #14
 1053 04c6 FFF7FEFF 		bl	CapSense_ProcessWidget
 1054              	.LVL145:
 406:main.c        ****             CapSense_ProcessWidget(CapSense_BUTTON16_WDGT_ID);
 1055              		.loc 1 406 0
 1056 04ca 0F20     		movs	r0, #15
 1057 04cc FFF7FEFF 		bl	CapSense_ProcessWidget
 1058              	.LVL146:
 407:main.c        ****             CapSense_ProcessWidget(CapSense_BUTTON17_WDGT_ID);
 1059              		.loc 1 407 0
 1060 04d0 1020     		movs	r0, #16
 1061 04d2 FFF7FEFF 		bl	CapSense_ProcessWidget
 1062              	.LVL147:
 408:main.c        ****             CapSense_ProcessWidget(CapSense_BUTTON18_WDGT_ID);
 1063              		.loc 1 408 0
 1064 04d6 1120     		movs	r0, #17
 1065 04d8 FFF7FEFF 		bl	CapSense_ProcessWidget
 1066              	.LVL148:
 409:main.c        ****             CapSense_ProcessWidget(CapSense_BUTTON19_WDGT_ID);
 1067              		.loc 1 409 0
 1068 04dc 1220     		movs	r0, #18
 1069 04de FFF7FEFF 		bl	CapSense_ProcessWidget
 1070              	.LVL149:
 410:main.c        ****             CapSense_ProcessWidget(CapSense_BUTTON20_WDGT_ID);
 1071              		.loc 1 410 0
 1072 04e2 1320     		movs	r0, #19
 1073 04e4 FFF7FEFF 		bl	CapSense_ProcessWidget
ARM GAS  C:\Users\Qinh\AppData\Local\Temp\ccbmCJ4b.s 			page 37


 1074              	.LVL150:
 411:main.c        ****             CapSense_ProcessWidget(CapSense_BUTTON21_WDGT_ID);
 1075              		.loc 1 411 0
 1076 04e8 1420     		movs	r0, #20
 1077 04ea FFF7FEFF 		bl	CapSense_ProcessWidget
 1078              	.LVL151:
 412:main.c        ****             CapSense_ProcessWidget(CapSense_BUTTON22_WDGT_ID);
 1079              		.loc 1 412 0
 1080 04ee 1520     		movs	r0, #21
 1081 04f0 FFF7FEFF 		bl	CapSense_ProcessWidget
 1082              	.LVL152:
 413:main.c        ****             CapSense_ProcessWidget(CapSense_BUTTON23_WDGT_ID);
 1083              		.loc 1 413 0
 1084 04f4 1620     		movs	r0, #22
 1085 04f6 FFF7FEFF 		bl	CapSense_ProcessWidget
 1086              	.LVL153:
 414:main.c        ****             CapSense_ProcessWidget(CapSense_BUTTON24_WDGT_ID);
 1087              		.loc 1 414 0
 1088 04fa 1720     		movs	r0, #23
 1089 04fc FFF7FEFF 		bl	CapSense_ProcessWidget
 1090              	.LVL154:
 415:main.c        ****             CapSense_ProcessWidget(CapSense_BUTTON25_WDGT_ID);
 1091              		.loc 1 415 0
 1092 0500 1820     		movs	r0, #24
 1093 0502 FFF7FEFF 		bl	CapSense_ProcessWidget
 1094              	.LVL155:
 416:main.c        ****             CapSense_ProcessWidget(CapSense_BUTTON26_WDGT_ID);
 1095              		.loc 1 416 0
 1096 0506 1920     		movs	r0, #25
 1097 0508 FFF7FEFF 		bl	CapSense_ProcessWidget
 1098              	.LVL156:
 417:main.c        ****             CapSense_ProcessWidget(CapSense_BUTTON27_WDGT_ID);
 1099              		.loc 1 417 0
 1100 050c 1A20     		movs	r0, #26
 1101 050e FFF7FEFF 		bl	CapSense_ProcessWidget
 1102              	.LVL157:
 418:main.c        ****             CapSense_ProcessWidget(CapSense_BUTTON28_WDGT_ID);
 1103              		.loc 1 418 0
 1104 0512 1B20     		movs	r0, #27
 1105 0514 FFF7FEFF 		bl	CapSense_ProcessWidget
 1106              	.LVL158:
 419:main.c        ****             CapSense_ProcessWidget(CapSense_BUTTON29_WDGT_ID);
 1107              		.loc 1 419 0
 1108 0518 1C20     		movs	r0, #28
 1109 051a FFF7FEFF 		bl	CapSense_ProcessWidget
 1110              	.LVL159:
 420:main.c        ****             CapSense_ProcessWidget(CapSense_BUTTON30_WDGT_ID);
 1111              		.loc 1 420 0
 1112 051e 1D20     		movs	r0, #29
 1113 0520 FFF7FEFF 		bl	CapSense_ProcessWidget
 1114              	.LVL160:
 421:main.c        ****             CapSense_ProcessWidget(CapSense_BUTTON31_WDGT_ID);
 1115              		.loc 1 421 0
 1116 0524 1E20     		movs	r0, #30
 1117 0526 FFF7FEFF 		bl	CapSense_ProcessWidget
 1118              	.LVL161:
 422:main.c        ****             CapSense_ProcessWidget(CapSense_BUTTON32_WDGT_ID);
ARM GAS  C:\Users\Qinh\AppData\Local\Temp\ccbmCJ4b.s 			page 38


 1119              		.loc 1 422 0
 1120 052a 1F20     		movs	r0, #31
 1121 052c FFF7FEFF 		bl	CapSense_ProcessWidget
 1122              	.LVL162:
 423:main.c        ****             CapSense_ProcessWidget(CapSense_BUTTON33_WDGT_ID);
 1123              		.loc 1 423 0
 1124 0530 2020     		movs	r0, #32
 1125 0532 FFF7FEFF 		bl	CapSense_ProcessWidget
 1126              	.LVL163:
 424:main.c        ****             Touch.channel_raw[0] = CapSense_BUTTON0_SNS0_RAW0_VALUE;
 1127              		.loc 1 424 0
 1128 0536 2120     		movs	r0, #33
 1129 0538 FFF7FEFF 		bl	CapSense_ProcessWidget
 1130              	.LVL164:
 425:main.c        ****             Touch.channel_raw[1] = CapSense_BUTTON1_SNS0_RAW0_VALUE;
 1131              		.loc 1 425 0
 1132 053c 5A4A     		ldr	r2, .L66+4
 1133 053e 5B4B     		ldr	r3, .L66+8
 1134 0540 D15A     		ldrh	r1, [r2, r3]
 1135 0542 5B4B     		ldr	r3, .L66+12
 1136 0544 5980     		strh	r1, [r3, #2]
 426:main.c        ****             Touch.channel_raw[2] = CapSense_BUTTON2_SNS0_RAW0_VALUE;
 1137              		.loc 1 426 0
 1138 0546 BE21     		movs	r1, #190
 1139 0548 8900     		lsls	r1, r1, #2
 1140 054a 515A     		ldrh	r1, [r2, r1]
 1141 054c 9980     		strh	r1, [r3, #4]
 427:main.c        ****             Touch.channel_raw[3] = CapSense_BUTTON3_SNS0_RAW0_VALUE;
 1142              		.loc 1 427 0
 1143 054e 5949     		ldr	r1, .L66+16
 1144 0550 515A     		ldrh	r1, [r2, r1]
 1145 0552 D980     		strh	r1, [r3, #6]
 428:main.c        ****             Touch.channel_raw[4] = CapSense_BUTTON4_SNS0_RAW0_VALUE;
 1146              		.loc 1 428 0
 1147 0554 C321     		movs	r1, #195
 1148 0556 8900     		lsls	r1, r1, #2
 1149 0558 515A     		ldrh	r1, [r2, r1]
 1150 055a 1981     		strh	r1, [r3, #8]
 429:main.c        ****             Touch.channel_raw[5] = CapSense_BUTTON5_SNS0_RAW0_VALUE;
 1151              		.loc 1 429 0
 1152 055c 5649     		ldr	r1, .L66+20
 1153 055e 515A     		ldrh	r1, [r2, r1]
 1154 0560 5981     		strh	r1, [r3, #10]
 430:main.c        ****             Touch.channel_raw[6] = CapSense_BUTTON6_SNS0_RAW0_VALUE;
 1155              		.loc 1 430 0
 1156 0562 C821     		movs	r1, #200
 1157 0564 8900     		lsls	r1, r1, #2
 1158 0566 515A     		ldrh	r1, [r2, r1]
 1159 0568 9981     		strh	r1, [r3, #12]
 431:main.c        ****             Touch.channel_raw[7] = CapSense_BUTTON7_SNS0_RAW0_VALUE;
 1160              		.loc 1 431 0
 1161 056a 5449     		ldr	r1, .L66+24
 1162 056c 515A     		ldrh	r1, [r2, r1]
 1163 056e D981     		strh	r1, [r3, #14]
 432:main.c        ****             Touch.channel_raw[8] = CapSense_BUTTON8_SNS0_RAW0_VALUE;
 1164              		.loc 1 432 0
 1165 0570 CD21     		movs	r1, #205
ARM GAS  C:\Users\Qinh\AppData\Local\Temp\ccbmCJ4b.s 			page 39


 1166 0572 8900     		lsls	r1, r1, #2
 1167 0574 515A     		ldrh	r1, [r2, r1]
 1168 0576 1982     		strh	r1, [r3, #16]
 433:main.c        ****             Touch.channel_raw[9] = CapSense_BUTTON9_SNS0_RAW0_VALUE;
 1169              		.loc 1 433 0
 1170 0578 5149     		ldr	r1, .L66+28
 1171 057a 515A     		ldrh	r1, [r2, r1]
 1172 057c 5982     		strh	r1, [r3, #18]
 434:main.c        ****             Touch.channel_raw[10] = CapSense_BUTTON10_SNS0_RAW0_VALUE;
 1173              		.loc 1 434 0
 1174 057e D221     		movs	r1, #210
 1175 0580 8900     		lsls	r1, r1, #2
 1176 0582 515A     		ldrh	r1, [r2, r1]
 1177 0584 9982     		strh	r1, [r3, #20]
 435:main.c        ****             Touch.channel_raw[11] = CapSense_BUTTON11_SNS0_RAW0_VALUE;
 1178              		.loc 1 435 0
 1179 0586 4F49     		ldr	r1, .L66+32
 1180 0588 515A     		ldrh	r1, [r2, r1]
 1181 058a D982     		strh	r1, [r3, #22]
 436:main.c        ****             Touch.channel_raw[12] = CapSense_BUTTON12_SNS0_RAW0_VALUE;
 1182              		.loc 1 436 0
 1183 058c D721     		movs	r1, #215
 1184 058e 8900     		lsls	r1, r1, #2
 1185 0590 515A     		ldrh	r1, [r2, r1]
 1186 0592 1983     		strh	r1, [r3, #24]
 437:main.c        ****             Touch.channel_raw[13] = CapSense_BUTTON13_SNS0_RAW0_VALUE;
 1187              		.loc 1 437 0
 1188 0594 4C49     		ldr	r1, .L66+36
 1189 0596 515A     		ldrh	r1, [r2, r1]
 1190 0598 5983     		strh	r1, [r3, #26]
 438:main.c        ****             Touch.channel_raw[14] = CapSense_BUTTON14_SNS0_RAW0_VALUE;
 1191              		.loc 1 438 0
 1192 059a DC21     		movs	r1, #220
 1193 059c 8900     		lsls	r1, r1, #2
 1194 059e 515A     		ldrh	r1, [r2, r1]
 1195 05a0 9983     		strh	r1, [r3, #28]
 439:main.c        ****             Touch.channel_raw[15] = CapSense_BUTTON15_SNS0_RAW0_VALUE;
 1196              		.loc 1 439 0
 1197 05a2 4A49     		ldr	r1, .L66+40
 1198 05a4 515A     		ldrh	r1, [r2, r1]
 1199 05a6 D983     		strh	r1, [r3, #30]
 440:main.c        ****             Touch.channel_raw[16] = CapSense_BUTTON16_SNS0_RAW0_VALUE;
 1200              		.loc 1 440 0
 1201 05a8 E121     		movs	r1, #225
 1202 05aa 8900     		lsls	r1, r1, #2
 1203 05ac 515A     		ldrh	r1, [r2, r1]
 1204 05ae 1984     		strh	r1, [r3, #32]
 441:main.c        ****             Touch.channel_raw[17] = CapSense_BUTTON17_SNS0_RAW0_VALUE;
 1205              		.loc 1 441 0
 1206 05b0 4749     		ldr	r1, .L66+44
 1207 05b2 515A     		ldrh	r1, [r2, r1]
 1208 05b4 5984     		strh	r1, [r3, #34]
 442:main.c        ****             Touch.channel_raw[18] = CapSense_BUTTON18_SNS0_RAW0_VALUE;
 1209              		.loc 1 442 0
 1210 05b6 E621     		movs	r1, #230
 1211 05b8 8900     		lsls	r1, r1, #2
 1212 05ba 515A     		ldrh	r1, [r2, r1]
ARM GAS  C:\Users\Qinh\AppData\Local\Temp\ccbmCJ4b.s 			page 40


 1213 05bc 9984     		strh	r1, [r3, #36]
 443:main.c        ****             Touch.channel_raw[19] = CapSense_BUTTON19_SNS0_RAW0_VALUE;
 1214              		.loc 1 443 0
 1215 05be 4549     		ldr	r1, .L66+48
 1216 05c0 515A     		ldrh	r1, [r2, r1]
 1217 05c2 D984     		strh	r1, [r3, #38]
 444:main.c        ****             Touch.channel_raw[20] = CapSense_BUTTON20_SNS0_RAW0_VALUE;
 1218              		.loc 1 444 0
 1219 05c4 EB21     		movs	r1, #235
 1220 05c6 8900     		lsls	r1, r1, #2
 1221 05c8 515A     		ldrh	r1, [r2, r1]
 1222 05ca 1985     		strh	r1, [r3, #40]
 445:main.c        ****             Touch.channel_raw[21] = CapSense_BUTTON21_SNS0_RAW0_VALUE;
 1223              		.loc 1 445 0
 1224 05cc 4249     		ldr	r1, .L66+52
 1225 05ce 515A     		ldrh	r1, [r2, r1]
 1226 05d0 5985     		strh	r1, [r3, #42]
 446:main.c        ****             Touch.channel_raw[22] = CapSense_BUTTON22_SNS0_RAW0_VALUE;
 1227              		.loc 1 446 0
 1228 05d2 F021     		movs	r1, #240
 1229 05d4 8900     		lsls	r1, r1, #2
 1230 05d6 515A     		ldrh	r1, [r2, r1]
 1231 05d8 9985     		strh	r1, [r3, #44]
 447:main.c        ****             Touch.channel_raw[23] = CapSense_BUTTON23_SNS0_RAW0_VALUE;
 1232              		.loc 1 447 0
 1233 05da 4049     		ldr	r1, .L66+56
 1234 05dc 515A     		ldrh	r1, [r2, r1]
 1235 05de D985     		strh	r1, [r3, #46]
 448:main.c        ****             Touch.channel_raw[24] = CapSense_BUTTON24_SNS0_RAW0_VALUE;
 1236              		.loc 1 448 0
 1237 05e0 F521     		movs	r1, #245
 1238 05e2 8900     		lsls	r1, r1, #2
 1239 05e4 515A     		ldrh	r1, [r2, r1]
 1240 05e6 1986     		strh	r1, [r3, #48]
 449:main.c        ****             Touch.channel_raw[25] = CapSense_BUTTON25_SNS0_RAW0_VALUE;
 1241              		.loc 1 449 0
 1242 05e8 3D49     		ldr	r1, .L66+60
 1243 05ea 515A     		ldrh	r1, [r2, r1]
 1244 05ec 5986     		strh	r1, [r3, #50]
 450:main.c        ****             Touch.channel_raw[26] = CapSense_BUTTON26_SNS0_RAW0_VALUE;
 1245              		.loc 1 450 0
 1246 05ee FA21     		movs	r1, #250
 1247 05f0 8900     		lsls	r1, r1, #2
 1248 05f2 515A     		ldrh	r1, [r2, r1]
 1249 05f4 9986     		strh	r1, [r3, #52]
 451:main.c        ****             Touch.channel_raw[27] = CapSense_BUTTON27_SNS0_RAW0_VALUE;
 1250              		.loc 1 451 0
 1251 05f6 3B49     		ldr	r1, .L66+64
 1252 05f8 515A     		ldrh	r1, [r2, r1]
 1253 05fa D986     		strh	r1, [r3, #54]
 452:main.c        ****             Touch.channel_raw[28] = CapSense_BUTTON28_SNS0_RAW0_VALUE;
 1254              		.loc 1 452 0
 1255 05fc FF21     		movs	r1, #255
 1256 05fe 8900     		lsls	r1, r1, #2
 1257 0600 515A     		ldrh	r1, [r2, r1]
 1258 0602 1987     		strh	r1, [r3, #56]
 453:main.c        ****             Touch.channel_raw[29] = CapSense_BUTTON29_SNS0_RAW0_VALUE;
ARM GAS  C:\Users\Qinh\AppData\Local\Temp\ccbmCJ4b.s 			page 41


 1259              		.loc 1 453 0
 1260 0604 3849     		ldr	r1, .L66+68
 1261 0606 515A     		ldrh	r1, [r2, r1]
 1262 0608 5987     		strh	r1, [r3, #58]
 454:main.c        ****             Touch.channel_raw[30] = CapSense_BUTTON30_SNS0_RAW0_VALUE;
 1263              		.loc 1 454 0
 1264 060a 8221     		movs	r1, #130
 1265 060c C900     		lsls	r1, r1, #3
 1266 060e 515A     		ldrh	r1, [r2, r1]
 1267 0610 9987     		strh	r1, [r3, #60]
 455:main.c        ****             Touch.channel_raw[31] = CapSense_BUTTON31_SNS0_RAW0_VALUE;
 1268              		.loc 1 455 0
 1269 0612 3649     		ldr	r1, .L66+72
 1270 0614 515A     		ldrh	r1, [r2, r1]
 1271 0616 D987     		strh	r1, [r3, #62]
 456:main.c        ****             Touch.channel_raw[32] = CapSense_BUTTON32_SNS0_RAW0_VALUE;
 1272              		.loc 1 456 0
 1273 0618 3549     		ldr	r1, .L66+76
 1274 061a 505A     		ldrh	r0, [r2, r1]
 1275 061c 4021     		movs	r1, #64
 1276 061e 5852     		strh	r0, [r3, r1]
 457:main.c        ****             Touch.channel_raw[33] = CapSense_BUTTON33_SNS0_RAW0_VALUE;
 1277              		.loc 1 457 0
 1278 0620 3449     		ldr	r1, .L66+80
 1279 0622 505A     		ldrh	r0, [r2, r1]
 1280 0624 4221     		movs	r1, #66
 1281 0626 5852     		strh	r0, [r3, r1]
 458:main.c        **** 
 1282              		.loc 1 458 0
 1283 0628 8721     		movs	r1, #135
 1284 062a C900     		lsls	r1, r1, #3
 1285 062c 515A     		ldrh	r1, [r2, r1]
 1286 062e 4422     		movs	r2, #68
 1287 0630 9952     		strh	r1, [r3, r2]
 1288              	.LVL165:
 1289              	.LBB2:
 460:main.c        ****                 Touch.channel_raw[i] = Touch.channel_raw[i] << resolution_zoom_map[i];
 1290              		.loc 1 460 0
 1291 0632 0023     		movs	r3, #0
 1292 0634 09E0     		b	.L57
 1293              	.LVL166:
 1294              	.L58:
 461:main.c        ****             }
 1295              		.loc 1 461 0 discriminator 3
 1296 0636 5A00     		lsls	r2, r3, #1
 1297 0638 1D49     		ldr	r1, .L66+12
 1298 063a 8A18     		adds	r2, r1, r2
 1299 063c 5188     		ldrh	r1, [r2, #2]
 1300 063e 2E48     		ldr	r0, .L66+84
 1301 0640 C05C     		ldrb	r0, [r0, r3]
 1302 0642 8140     		lsls	r1, r1, r0
 1303 0644 5180     		strh	r1, [r2, #2]
 460:main.c        ****                 Touch.channel_raw[i] = Touch.channel_raw[i] << resolution_zoom_map[i];
 1304              		.loc 1 460 0 discriminator 3
 1305 0646 0133     		adds	r3, r3, #1
 1306              	.LVL167:
 1307 0648 DBB2     		uxtb	r3, r3
ARM GAS  C:\Users\Qinh\AppData\Local\Temp\ccbmCJ4b.s 			page 42


 1308              	.LVL168:
 1309              	.L57:
 460:main.c        ****                 Touch.channel_raw[i] = Touch.channel_raw[i] << resolution_zoom_map[i];
 1310              		.loc 1 460 0 is_stmt 0 discriminator 1
 1311 064a 212B     		cmp	r3, #33
 1312 064c F3D9     		bls	.L58
 1313 064e 0024     		movs	r4, #0
 1314 0650 05E0     		b	.L59
 1315              	.LVL169:
 1316              	.L60:
 1317              	.LBE2:
 1318              	.LBB3:
 464:main.c        ****             }
 1319              		.loc 1 464 0 is_stmt 1 discriminator 3
 1320 0652 174B     		ldr	r3, .L66+12
 1321 0654 185D     		ldrb	r0, [r3, r4]
 1322 0656 FFF7FEFF 		bl	UART_1_SpiUartWriteTxData
 1323              	.LVL170:
 463:main.c        ****                 UART_1_UartPutChar(Touch.data[i]);
 1324              		.loc 1 463 0 discriminator 3
 1325 065a 0134     		adds	r4, r4, #1
 1326              	.LVL171:
 1327 065c E4B2     		uxtb	r4, r4
 1328              	.LVL172:
 1329              	.L59:
 463:main.c        ****                 UART_1_UartPutChar(Touch.data[i]);
 1330              		.loc 1 463 0 is_stmt 0 discriminator 1
 1331 065e 452C     		cmp	r4, #69
 1332 0660 F7D9     		bls	.L60
 1333              	.LBE3:
 553:main.c        ****                     {
 1334              		.loc 1 553 0 is_stmt 1
 1335 0662 FFF7FEFF 		bl	CapSense_IsAnyWidgetActive
 1336              	.LVL173:
 1337 0666 0028     		cmp	r0, #0
 1338 0668 00D0     		beq	.LCB1112
 1339 066a 6EE5     		b	.L62	@long jump
 1340              	.LCB1112:
 563:main.c        ****                         
 1341              		.loc 1 563 0
 1342 066c 0135     		adds	r5, r5, #1
 1343              	.LVL174:
 1344 066e ADB2     		uxth	r5, r5
 1345              	.LVL175:
 568:main.c        ****                         {   
 1346              		.loc 1 568 0
 1347 0670 952D     		cmp	r5, #149
 1348 0672 00D8     		bhi	.LCB1118
 1349 0674 6CE5     		b	.L63	@long jump
 1350              	.LCB1118:
 571:main.c        ****                             
 1351              		.loc 1 571 0
 1352 0676 0B4B     		ldr	r3, .L66
 1353 0678 DA68     		ldr	r2, [r3, #12]
 1354 067a 204B     		ldr	r3, .L66+88
 1355 067c 1A60     		str	r2, [r3]
 1356              	.LVL176:
ARM GAS  C:\Users\Qinh\AppData\Local\Temp\ccbmCJ4b.s 			page 43


 606:main.c        ****                 deviceScanMode = FAST_SCAN_MODE; 
 1357              		.loc 1 606 0
 1358 067e 0124     		movs	r4, #1
 1359              	.LVL177:
 1360 0680 67E5     		b	.L15
 1361              	.LVL178:
 1362              	.L21:
 612:main.c        ****                 
 1363              		.loc 1 612 0
 1364 0682 FFF7FEFF 		bl	EnterDeepSleepLowPowerMode
 1365              	.LVL179:
 618:main.c        ****                 {
 1366              		.loc 1 618 0
 1367 0686 074B     		ldr	r3, .L66
 1368 0688 1B79     		ldrb	r3, [r3, #4]
 1369 068a 002B     		cmp	r3, #0
 1370 068c 00D1     		bne	.LCB1141
 1371 068e 60E5     		b	.L15	@long jump
 1372              	.LCB1141:
 1373              	.LVL180:
 623:main.c        ****                 }
 1374              		.loc 1 623 0
 1375 0690 0022     		movs	r2, #0
 1376 0692 044B     		ldr	r3, .L66
 1377 0694 1A71     		strb	r2, [r3, #4]
 621:main.c        ****                     
 1378              		.loc 1 621 0
 1379 0696 0124     		movs	r4, #1
 1380 0698 5BE5     		b	.L15
 1381              	.LVL181:
 1382              	.L16:
 631:main.c        ****                 break;
 1383              		.loc 1 631 0 discriminator 1
 1384 069a 0020     		movs	r0, #0
 1385 069c FFF7FEFF 		bl	CyHalt
 1386              	.LVL182:
 632:main.c        ****         } 
 1387              		.loc 1 632 0 discriminator 1
 1388 06a0 57E5     		b	.L15
 1389              	.L67:
 1390 06a2 C046     		.align	2
 1391              	.L66:
 1392 06a4 00000000 		.word	.LANCHOR0
 1393 06a8 00000000 		.word	CapSense_dsRam
 1394 06ac EE020000 		.word	750
 1395 06b0 00000000 		.word	Touch
 1396 06b4 02030000 		.word	770
 1397 06b8 16030000 		.word	790
 1398 06bc 2A030000 		.word	810
 1399 06c0 3E030000 		.word	830
 1400 06c4 52030000 		.word	850
 1401 06c8 66030000 		.word	870
 1402 06cc 7A030000 		.word	890
 1403 06d0 8E030000 		.word	910
 1404 06d4 A2030000 		.word	930
 1405 06d8 B6030000 		.word	950
 1406 06dc CA030000 		.word	970
ARM GAS  C:\Users\Qinh\AppData\Local\Temp\ccbmCJ4b.s 			page 44


 1407 06e0 DE030000 		.word	990
 1408 06e4 F2030000 		.word	1010
 1409 06e8 06040000 		.word	1030
 1410 06ec 1A040000 		.word	1050
 1411 06f0 24040000 		.word	1060
 1412 06f4 2E040000 		.word	1070
 1413 06f8 00000000 		.word	resolution_zoom_map
 1414 06fc 00000000 		.word	.LANCHOR1
 1415              		.cfi_endproc
 1416              	.LFE33:
 1417              		.size	main, .-main
 1418              		.comm	resolution_zoom_map,34,4
 1419              		.global	watchdogMatchValue
 1420              		.global	wdtInterruptOccured
 1421              		.global	wdtMatchValSlowMode
 1422              		.global	wdtMatchValFastMode
 1423              		.global	interruptState
 1424              		.comm	Touch,70,4
 1425              		.comm	vofa1,4,4
 1426              		.data
 1427              		.align	2
 1428              		.set	.LANCHOR1,. + 0
 1429              		.type	watchdogMatchValue, %object
 1430              		.size	watchdogMatchValue, 4
 1431              	watchdogMatchValue:
 1432 0000 B0040000 		.word	1200
 1433              		.bss
 1434              		.align	2
 1435              		.set	.LANCHOR0,. + 0
 1436              		.type	interruptState, %object
 1437              		.size	interruptState, 4
 1438              	interruptState:
 1439 0000 00000000 		.space	4
 1440              		.type	wdtInterruptOccured, %object
 1441              		.size	wdtInterruptOccured, 1
 1442              	wdtInterruptOccured:
 1443 0004 00       		.space	1
 1444 0005 000000   		.space	3
 1445              		.type	wdtMatchValFastMode, %object
 1446              		.size	wdtMatchValFastMode, 4
 1447              	wdtMatchValFastMode:
 1448 0008 00000000 		.space	4
 1449              		.type	wdtMatchValSlowMode, %object
 1450              		.size	wdtMatchValSlowMode, 4
 1451              	wdtMatchValSlowMode:
 1452 000c 00000000 		.space	4
 1453              		.text
 1454              	.Letext0:
 1455              		.file 2 "c:\\program files (x86)\\cypress\\psoc creator\\4.4\\psoc creator\\import\\gnu\\arm\\5.4.
 1456              		.file 3 "c:\\program files (x86)\\cypress\\psoc creator\\4.4\\psoc creator\\import\\gnu\\arm\\5.4.
 1457              		.file 4 "Generated_Source\\PSoC4/cytypes.h"
 1458              		.file 5 "Generated_Source\\PSoC4/CapSense_Configuration.h"
 1459              		.file 6 "Generated_Source\\PSoC4/CapSense_Structure.h"
 1460              		.file 7 "Generated_Source\\PSoC4/CyLib.h"
 1461              		.file 8 "Generated_Source\\PSoC4/CyLFClk.h"
 1462              		.file 9 "Generated_Source\\PSoC4/UART_1_SPI_UART.h"
 1463              		.file 10 "Generated_Source\\PSoC4/UART_1.h"
ARM GAS  C:\Users\Qinh\AppData\Local\Temp\ccbmCJ4b.s 			page 45


 1464              		.file 11 "Generated_Source\\PSoC4/CapSense_Control.h"
 1465              		.file 12 "Generated_Source\\PSoC4/CapSense_Sensing.h"
 1466              		.file 13 "Generated_Source\\PSoC4/CapSense_SensingCSD_LL.h"
 1467              		.file 14 "Generated_Source\\PSoC4/cyPm.h"