ARM GAS  C:\Users\Qinh\AppData\Local\Temp\ccYrTOvs.s 			page 1


   1              		.syntax unified
   2              		.cpu cortex-m0plus
   3              		.fpu softvfp
   4              		.eabi_attribute 20, 1
   5              		.eabi_attribute 21, 1
   6              		.eabi_attribute 23, 3
   7              		.eabi_attribute 24, 1
   8              		.eabi_attribute 25, 1
   9              		.eabi_attribute 26, 1
  10              		.eabi_attribute 30, 4
  11              		.eabi_attribute 34, 0
  12              		.eabi_attribute 18, 4
  13              		.thumb
  14              		.syntax unified
  15              		.file	"main.c"
  16              		.text
  17              	.Ltext0:
  18              		.cfi_sections	.debug_frame
  19              		.section	.text.EnterDeepSleepLowPowerMode,"ax",%progbits
  20              		.align	1
  21              		.global	EnterDeepSleepLowPowerMode
  22              		.code	16
  23              		.thumb_func
  24              		.type	EnterDeepSleepLowPowerMode, %function
  25              	EnterDeepSleepLowPowerMode:
  26              	.LFB34:
  27              		.file 1 "main.c"
   1:main.c        **** /*****************************************************************************
   2:main.c        **** * File Name: main.c
   3:main.c        **** *
   4:main.c        **** * Version: 1.10
   5:main.c        **** *
   6:main.c        **** * Description: This code example demonstrates how to implement a low-power 
   7:main.c        **** *              CapSense button with an average current consumption of 6uA
   8:main.c        **** *              per button. 
   9:main.c        **** 
  10:main.c        **** * Related Document: CE210291.pdf 
  11:main.c        **** *
  12:main.c        **** * Hardware Dependency: See code example document CE210291
  13:main.c        **** *
  14:main.c        **** ******************************************************************************
  15:main.c        **** * Copyright (2016), Cypress Semiconductor Corporation.
  16:main.c        **** ******************************************************************************
  17:main.c        **** * This software is owned by Cypress Semiconductor Corporation (Cypress) and is
  18:main.c        **** * protected by and subject to worldwide patent protection (United States and
  19:main.c        **** * foreign), United States copyright laws and international treaty provisions.
  20:main.c        **** * Cypress hereby grants to licensee a personal, non-exclusive, non-transferable
  21:main.c        **** * license to copy, use, modify, create derivative works of, and compile the
  22:main.c        **** * Cypress Source Code and derivative works for the sole purpose of creating
  23:main.c        **** * custom software in support of licensee product to be used only in conjunction
  24:main.c        **** * with a Cypress integrated circuit as specified in the applicable agreement.
  25:main.c        **** * Any reproduction, modification, translation, compilation, or representation of
  26:main.c        **** * this software except as specified above is prohibited without the express
  27:main.c        **** * written permission of Cypress.
  28:main.c        **** *
  29:main.c        **** * Disclaimer: CYPRESS MAKES NO WARRANTY OF ANY KIND, EXPRESS OR IMPLIED, WITH
  30:main.c        **** * REGARD TO THIS MATERIAL, INCLUDING, BUT NOT LIMITED TO, THE IMPLIED
ARM GAS  C:\Users\Qinh\AppData\Local\Temp\ccYrTOvs.s 			page 2


  31:main.c        **** * WARRANTIES OF MERCHANTABILITY AND FITNESS FOR A PARTICULAR PURPOSE.
  32:main.c        **** * Cypress reserves the right to make changes without further notice to the
  33:main.c        **** * materials described herein. Cypress does not assume any liability arising out
  34:main.c        **** * of the application or use of any product or circuit described herein. Cypress
  35:main.c        **** * does not authorize its products for use as critical components in life-support
  36:main.c        **** * systems where a malfunction or failure may reasonably be expected to result in
  37:main.c        **** * significant injury to the user. The inclusion of Cypress' product in a life-
  38:main.c        **** * support systems application implies that the manufacturer assumes all risk of
  39:main.c        **** * such use and in doing so indemnifies Cypress against all charges. Use may be
  40:main.c        **** * limited by and subject to the applicable Cypress software license agreement.
  41:main.c        **** *****************************************************************************/
  42:main.c        **** 
  43:main.c        **** /*******************************************************************************
  44:main.c        **** *   Included Headers
  45:main.c        **** *******************************************************************************/
  46:main.c        **** #include "project.h"
  47:main.c        **** 
  48:main.c        **** /*****************************************************************************
  49:main.c        **** * MACRO Definitions
  50:main.c        **** *****************************************************************************/   
  51:main.c        **** 
  52:main.c        **** /* Refresh interval in milliseconds for fast scan mode */
  53:main.c        **** #define LOOP_TIME_FASTSCANMODE          (30u)
  54:main.c        **** 
  55:main.c        **** /* Refresh interval in milliseconds for slow scan mode */
  56:main.c        **** #define LOOP_TIME_SLOWSCANMODE          (200u)
  57:main.c        **** 
  58:main.c        **** #define MILLI_SEC_TO_MICRO_SEC          (1000u)
  59:main.c        **** 
  60:main.c        **** #if (!CY_IP_SRSSV2)
  61:main.c        ****     /* ILO frequency for PSoC 4 S-Series device */
  62:main.c        ****     #define ILO_CLOCK_FACTOR            (40u)
  63:main.c        **** #else
  64:main.c        ****     /* ILO frequency for PSoC 4 device */
  65:main.c        ****     #define ILO_CLOCK_FACTOR            (32u)
  66:main.c        **** #endif
  67:main.c        **** 
  68:main.c        **** /* Refresh rate control parameters */    
  69:main.c        **** #define WDT_TIMEOUT_FAST_SCAN           (ILO_CLOCK_FACTOR * LOOP_TIME_FASTSCANMODE)   
  70:main.c        **** #define WDT_TIMEOUT_SLOW_SCAN           (ILO_CLOCK_FACTOR * LOOP_TIME_SLOWSCANMODE)
  71:main.c        **** 
  72:main.c        **** /* Macro to enable WDT */
  73:main.c        **** #define ENABLE_WDT                      (0x01u)
  74:main.c        **** 
  75:main.c        **** /* Macro to disable/enable tuner to update sensor parameters - 0: disable 1: enable */
  76:main.c        **** #define TUNER_UPDATE_ENABLE             (0u)
  77:main.c        **** 
  78:main.c        **** /* This timeout is for changing the refresh interval from fast to slow rate
  79:main.c        **** *  The timeout value is WDT_TIMEOUT_FAST_SCAN * SCANMODE_TIMEOUT_VALUE
  80:main.c        **** */
  81:main.c        **** #define SCANMODE_TIMEOUT_VALUE          (150u)  
  82:main.c        **** 
  83:main.c        **** /* Reset value of softCounter */    
  84:main.c        **** #define RESET                           (0u)
  85:main.c        **** 
  86:main.c        **** /* Boolean constants */
  87:main.c        **** #define TRUE                            (1u)
ARM GAS  C:\Users\Qinh\AppData\Local\Temp\ccYrTOvs.s 			page 3


  88:main.c        **** #define FALSE                           (0u)
  89:main.c        **** 
  90:main.c        **** /* Finite state machine states for device operating states */
  91:main.c        **** typedef enum
  92:main.c        **** {
  93:main.c        ****     SENSOR_SCAN = 0x01u, /* Sensor is scanned in this state */
  94:main.c        ****     WAIT_FOR_SCAN_COMPLETE = 0x02u, /* CPU is put to sleep in this state */
  95:main.c        ****     PROCESS_DATA = 0x03u, /* Sensor data is processed */
  96:main.c        ****     SLEEP = 0x04u /* Device is put to deep sleep */
  97:main.c        **** } DEVICE_STATE;
  98:main.c        **** 
  99:main.c        **** typedef union{
 100:main.c        ****     float raw_data_fl;
 101:main.c        ****     uint8_t raw_data_u8[4];
 102:main.c        **** }vofa;
 103:main.c        **** 
 104:main.c        **** vofa vofa1;
 105:main.c        **** 
 106:main.c        **** typedef union{
 107:main.c        **** 	uint8_t data[70];
 108:main.c        **** 	struct{
 109:main.c        **** 		uint8_t syn[2];
 110:main.c        **** 		uint16_t channel_raw[34];
 111:main.c        **** 	};
 112:main.c        **** }packet_capsense_t;
 113:main.c        **** 
 114:main.c        **** packet_capsense_t Touch;
 115:main.c        **** 
 116:main.c        **** /* Firmware implements two refresh rates for reducing average power consumption */
 117:main.c        **** typedef enum
 118:main.c        **** {
 119:main.c        ****     SLOW_SCAN_MODE = 0u,
 120:main.c        ****     FAST_SCAN_MODE = 1u
 121:main.c        **** } SCAN_MODE;
 122:main.c        **** 
 123:main.c        **** /* Variable to store interrupt state */
 124:main.c        **** uint32 interruptState = 0u;
 125:main.c        **** 
 126:main.c        **** /* Compensated Watchdog match value in fast scan mode */
 127:main.c        **** uint32 wdtMatchValFastMode = 0u;
 128:main.c        **** 
 129:main.c        **** /* Compensated Watchdog match value in slow scan mode */
 130:main.c        **** uint32 wdtMatchValSlowMode = 0u;
 131:main.c        **** 
 132:main.c        **** /* Variable to check the WDT interrupt state */
 133:main.c        **** volatile uint8 wdtInterruptOccured = FALSE;
 134:main.c        **** 
 135:main.c        **** /* Contains watchdog match value to generate period interrupt */
 136:main.c        **** volatile uint32 watchdogMatchValue = WDT_TIMEOUT_FAST_SCAN;
 137:main.c        **** 
 138:main.c        **** /* API to prepare the device for deep sleep */
 139:main.c        **** void EnterDeepSleepLowPowerMode(void);
 140:main.c        **** 
 141:main.c        **** /* API to configure the WDT timer for controlling scan intervals */
 142:main.c        **** void WDT_Start(void);
 143:main.c        **** 
 144:main.c        **** /* API to get WDT matchvalue to generate precise scan intervals */
ARM GAS  C:\Users\Qinh\AppData\Local\Temp\ccYrTOvs.s 			page 4


 145:main.c        **** void CalibrateWdtMatchValue(void);
 146:main.c        **** 
 147:main.c        **** uint8_t resolution_zoom_map[34];
 148:main.c        **** 
 149:main.c        **** /*******************************************************************************
 150:main.c        **** * Function Name: main
 151:main.c        **** ********************************************************************************
 152:main.c        **** *
 153:main.c        **** * Summary:
 154:main.c        **** *  main() performs the following functions:
 155:main.c        **** *  1. Initializes the CapSense and SCB blocks.
 156:main.c        **** *  2. Scans button sensor at either fast refresh rate or slow refresh rate.
 157:main.c        **** *
 158:main.c        **** *******************************************************************************/
 159:main.c        **** int main()
 160:main.c        **** {   
 161:main.c        ****     /* Variable to hold the current device state 
 162:main.c        ****     *  State machine starts with sensor scan state after power-up
 163:main.c        ****     */
 164:main.c        ****     DEVICE_STATE currentState = SENSOR_SCAN; 
 165:main.c        ****     
 166:main.c        ****     /* This variable is used to indicate the current power mode */
 167:main.c        ****     SCAN_MODE deviceScanMode = FAST_SCAN_MODE;
 168:main.c        ****     
 169:main.c        ****     /* This variable is used to implement a software counter. If the value 
 170:main.c        ****     *  of this counter is greater than SCANMODE_TIMEOUT_VALUE, it indicates that the button sensor 
 171:main.c        ****     *  was inactive for more than 3s. 
 172:main.c        ****     */
 173:main.c        ****     uint16 softCounter = RESET;
 174:main.c        ****     
 175:main.c        ****     /* Enable global interrupts for CapSense operation */
 176:main.c        ****     CyGlobalIntEnable;
 177:main.c        ****     UART_1_Start();
 178:main.c        **** 
 179:main.c        ****     /* Start CapSense block - Initializes CapSense data structure and 
 180:main.c        ****      * performs first scan of all widgets/sensors to set up sensors
 181:main.c        ****      * baselines 
 182:main.c        ****      */
 183:main.c        ****     CapSense_Start();
 184:main.c        **** 
 185:main.c        ****     /* Configure button sensor parameters and connect it to AMUXBUS */
 186:main.c        ****     
 187:main.c        ****    // CapSense_CSDSetupWidgetExt(CapSense_BUTTON2_WDGT_ID, CapSense_BUTTON2_SNS0_ID);
 188:main.c        ****    
 189:main.c        ****     /* Watchdog is used to control the loop time in this project and watchdog
 190:main.c        ****     *  is set to generate interrupt at every LOOP_TIME_FASTSCANMODE in fast scan mode  
 191:main.c        ****     *  and at LOOP_TIME_SLOWSCANMODE in slow scan mode
 192:main.c        ****     */
 193:main.c        ****     WDT_Start();
 194:main.c        ****     resolution_zoom_map[0] = 16 - CapSense_BUTTON0_RESOLUTION_VALUE;
 195:main.c        ****     resolution_zoom_map[1] = 16 - CapSense_BUTTON1_RESOLUTION_VALUE;
 196:main.c        ****     resolution_zoom_map[2] = 16 - CapSense_BUTTON2_RESOLUTION_VALUE;
 197:main.c        ****     resolution_zoom_map[3] = 16 - CapSense_BUTTON3_RESOLUTION_VALUE;
 198:main.c        ****     resolution_zoom_map[4] = 16 - CapSense_BUTTON4_RESOLUTION_VALUE;
 199:main.c        ****     resolution_zoom_map[5] = 16 - CapSense_BUTTON5_RESOLUTION_VALUE;
 200:main.c        ****     resolution_zoom_map[6] = 16 - CapSense_BUTTON6_RESOLUTION_VALUE;
 201:main.c        ****     resolution_zoom_map[7] = 16 - CapSense_BUTTON7_RESOLUTION_VALUE;
ARM GAS  C:\Users\Qinh\AppData\Local\Temp\ccYrTOvs.s 			page 5


 202:main.c        ****     resolution_zoom_map[8] = 16 - CapSense_BUTTON8_RESOLUTION_VALUE;
 203:main.c        ****     resolution_zoom_map[9] = 16 - CapSense_BUTTON9_RESOLUTION_VALUE;
 204:main.c        ****     resolution_zoom_map[10] = 16 - CapSense_BUTTON10_RESOLUTION_VALUE;
 205:main.c        ****     resolution_zoom_map[11] = 16 - CapSense_BUTTON11_RESOLUTION_VALUE;
 206:main.c        ****     resolution_zoom_map[12] = 16 - CapSense_BUTTON12_RESOLUTION_VALUE;
 207:main.c        ****     resolution_zoom_map[13] = 16 - CapSense_BUTTON13_RESOLUTION_VALUE;
 208:main.c        ****     resolution_zoom_map[14] = 16 - CapSense_BUTTON14_RESOLUTION_VALUE;
 209:main.c        ****     resolution_zoom_map[15] = 16 - CapSense_BUTTON15_RESOLUTION_VALUE;
 210:main.c        ****     resolution_zoom_map[16] = 16 - CapSense_BUTTON16_RESOLUTION_VALUE;
 211:main.c        ****     resolution_zoom_map[17] = 16 - CapSense_BUTTON17_RESOLUTION_VALUE;
 212:main.c        ****     resolution_zoom_map[18] = 16 - CapSense_BUTTON18_RESOLUTION_VALUE;
 213:main.c        ****     resolution_zoom_map[19] = 16 - CapSense_BUTTON19_RESOLUTION_VALUE;
 214:main.c        ****     resolution_zoom_map[20] = 16 - CapSense_BUTTON20_RESOLUTION_VALUE;
 215:main.c        ****     resolution_zoom_map[21] = 16 - CapSense_BUTTON21_RESOLUTION_VALUE;
 216:main.c        ****     resolution_zoom_map[22] = 16 - CapSense_BUTTON22_RESOLUTION_VALUE;
 217:main.c        ****     resolution_zoom_map[23] = 16 - CapSense_BUTTON23_RESOLUTION_VALUE;
 218:main.c        ****     resolution_zoom_map[24] = 16 - CapSense_BUTTON24_RESOLUTION_VALUE;
 219:main.c        ****     resolution_zoom_map[25] = 16 - CapSense_BUTTON25_RESOLUTION_VALUE;
 220:main.c        ****     resolution_zoom_map[26] = 16 - CapSense_BUTTON26_RESOLUTION_VALUE;
 221:main.c        ****     resolution_zoom_map[27] = 16 - CapSense_BUTTON27_RESOLUTION_VALUE;
 222:main.c        ****     resolution_zoom_map[28] = 16 - CapSense_BUTTON28_RESOLUTION_VALUE;
 223:main.c        ****     resolution_zoom_map[29] = 16 - CapSense_BUTTON29_RESOLUTION_VALUE;
 224:main.c        ****     resolution_zoom_map[30] = 16 - CapSense_BUTTON30_RESOLUTION_VALUE;
 225:main.c        ****     resolution_zoom_map[31] = 16 - CapSense_BUTTON31_RESOLUTION_VALUE;
 226:main.c        ****     resolution_zoom_map[32] = 16 - CapSense_BUTTON32_RESOLUTION_VALUE;
 227:main.c        ****     resolution_zoom_map[33] = 16 - CapSense_BUTTON33_RESOLUTION_VALUE;
 228:main.c        ****     for(;;)
 229:main.c        ****     {
 230:main.c        ****         /* Switch between sensor-scan -> wait-for-scan -> process -> sleep states */
 231:main.c        ****         switch(currentState)
 232:main.c        ****         {
 233:main.c        ****             case SENSOR_SCAN:
 234:main.c        ****                 /* Initiate new scan only if the CapSense hardware is idle */
 235:main.c        ****                 if(CapSense_NOT_BUSY == CapSense_IsBusy())
 236:main.c        ****                 {
 237:main.c        ****                     /* Update CapSense parameters set via CapSense tuner before the 
 238:main.c        ****                     *  beginning of CapSense scan. This check if required if we are using 
 239:main.c        ****                     *  CapSense Extension (Ext) APIs in the project.
 240:main.c        ****                     */
 241:main.c        ****                     #if (TUNER_UPDATE_ENABLE)
 242:main.c        ****                         if(CapSense_STATUS_RESTART_DONE == CapSense_RunTuner())
 243:main.c        ****                         {
 244:main.c        ****                             /* Set up sensor */
 245:main.c        ****                             CapSense_CSDSetupWidgetExt(CapSense_BUTTON0_WDGT_ID, CapSense_BUTTON0_S
 246:main.c        ****                            
 247:main.c        ****                            
 248:main.c        ****                         }
 249:main.c        ****                     #endif
 250:main.c        ****                     
 251:main.c        ****                     /* Scan widget configured by CSDSetupWidgetExt API */
 252:main.c        ****                     CapSense_CSDSetupWidgetExt(CapSense_BUTTON0_WDGT_ID, CapSense_BUTTON0_SNS0_ID);
 253:main.c        ****                     CapSense_CSDScanExt();
 254:main.c        ****                     while(CapSense_IsBusy());
 255:main.c        ****                     CapSense_CSDSetupWidgetExt(CapSense_BUTTON1_WDGT_ID, CapSense_BUTTON1_SNS0_ID);
 256:main.c        ****                     CapSense_CSDScanExt();
 257:main.c        ****                     while(CapSense_IsBusy());
 258:main.c        ****                     CapSense_CSDSetupWidgetExt(CapSense_BUTTON2_WDGT_ID, CapSense_BUTTON2_SNS0_ID);
ARM GAS  C:\Users\Qinh\AppData\Local\Temp\ccYrTOvs.s 			page 6


 259:main.c        ****                     CapSense_CSDScanExt();
 260:main.c        ****                     while(CapSense_IsBusy());
 261:main.c        ****                     CapSense_CSDSetupWidgetExt(CapSense_BUTTON3_WDGT_ID, CapSense_BUTTON3_SNS0_ID);
 262:main.c        ****                     CapSense_CSDScanExt();
 263:main.c        ****                     while(CapSense_IsBusy());
 264:main.c        ****                     CapSense_CSDSetupWidgetExt(CapSense_BUTTON4_WDGT_ID, CapSense_BUTTON4_SNS0_ID);
 265:main.c        ****                     CapSense_CSDScanExt();
 266:main.c        ****                     while(CapSense_IsBusy());
 267:main.c        ****                     CapSense_CSDSetupWidgetExt(CapSense_BUTTON5_WDGT_ID, CapSense_BUTTON5_SNS0_ID);
 268:main.c        ****                     CapSense_CSDScanExt();
 269:main.c        ****                     while(CapSense_IsBusy());
 270:main.c        ****                     CapSense_CSDSetupWidgetExt(CapSense_BUTTON6_WDGT_ID, CapSense_BUTTON6_SNS0_ID);
 271:main.c        ****                     CapSense_CSDScanExt();
 272:main.c        ****                     while(CapSense_IsBusy());
 273:main.c        ****                     CapSense_CSDSetupWidgetExt(CapSense_BUTTON7_WDGT_ID, CapSense_BUTTON7_SNS0_ID);
 274:main.c        ****                     CapSense_CSDScanExt();
 275:main.c        ****                     while(CapSense_IsBusy());
 276:main.c        ****                     CapSense_CSDSetupWidgetExt(CapSense_BUTTON8_WDGT_ID, CapSense_BUTTON8_SNS0_ID);
 277:main.c        ****                     CapSense_CSDScanExt();
 278:main.c        ****                     while(CapSense_IsBusy());
 279:main.c        ****                     CapSense_CSDSetupWidgetExt(CapSense_BUTTON9_WDGT_ID, CapSense_BUTTON9_SNS0_ID);
 280:main.c        ****                     CapSense_CSDScanExt();
 281:main.c        ****                     while(CapSense_IsBusy());
 282:main.c        ****                     CapSense_CSDSetupWidgetExt(CapSense_BUTTON10_WDGT_ID, CapSense_BUTTON10_SNS0_ID
 283:main.c        ****                     CapSense_CSDScanExt();
 284:main.c        ****                     while(CapSense_IsBusy());
 285:main.c        ****                     CapSense_CSDSetupWidgetExt(CapSense_BUTTON11_WDGT_ID, CapSense_BUTTON11_SNS0_ID
 286:main.c        ****                     CapSense_CSDScanExt();
 287:main.c        ****                     while(CapSense_IsBusy());
 288:main.c        ****                     CapSense_CSDSetupWidgetExt(CapSense_BUTTON12_WDGT_ID, CapSense_BUTTON12_SNS0_ID
 289:main.c        ****                     CapSense_CSDScanExt();
 290:main.c        ****                     while(CapSense_IsBusy());
 291:main.c        ****                     CapSense_CSDSetupWidgetExt(CapSense_BUTTON13_WDGT_ID, CapSense_BUTTON13_SNS0_ID
 292:main.c        ****                     CapSense_CSDScanExt();
 293:main.c        ****                     while(CapSense_IsBusy());
 294:main.c        ****                     CapSense_CSDSetupWidgetExt(CapSense_BUTTON14_WDGT_ID, CapSense_BUTTON14_SNS0_ID
 295:main.c        ****                     CapSense_CSDScanExt();
 296:main.c        ****                     while(CapSense_IsBusy());
 297:main.c        ****                     CapSense_CSDSetupWidgetExt(CapSense_BUTTON15_WDGT_ID, CapSense_BUTTON15_SNS0_ID
 298:main.c        ****                     CapSense_CSDScanExt();
 299:main.c        ****                     while(CapSense_IsBusy());
 300:main.c        ****                     CapSense_CSDSetupWidgetExt(CapSense_BUTTON16_WDGT_ID, CapSense_BUTTON16_SNS0_ID
 301:main.c        ****                     CapSense_CSDScanExt();
 302:main.c        ****                     while(CapSense_IsBusy());
 303:main.c        ****                     CapSense_CSDSetupWidgetExt(CapSense_BUTTON17_WDGT_ID, CapSense_BUTTON17_SNS0_ID
 304:main.c        ****                     CapSense_CSDScanExt();
 305:main.c        ****                     while(CapSense_IsBusy());
 306:main.c        ****                     CapSense_CSDSetupWidgetExt(CapSense_BUTTON18_WDGT_ID, CapSense_BUTTON18_SNS0_ID
 307:main.c        ****                     CapSense_CSDScanExt();
 308:main.c        ****                     while(CapSense_IsBusy());
 309:main.c        ****                     CapSense_CSDSetupWidgetExt(CapSense_BUTTON19_WDGT_ID, CapSense_BUTTON19_SNS0_ID
 310:main.c        ****                     CapSense_CSDScanExt();
 311:main.c        ****                     while(CapSense_IsBusy());
 312:main.c        ****                     CapSense_CSDSetupWidgetExt(CapSense_BUTTON20_WDGT_ID, CapSense_BUTTON20_SNS0_ID
 313:main.c        ****                     CapSense_CSDScanExt();
 314:main.c        ****                     while(CapSense_IsBusy());
 315:main.c        ****                     CapSense_CSDSetupWidgetExt(CapSense_BUTTON21_WDGT_ID, CapSense_BUTTON21_SNS0_ID
ARM GAS  C:\Users\Qinh\AppData\Local\Temp\ccYrTOvs.s 			page 7


 316:main.c        ****                     CapSense_CSDScanExt();
 317:main.c        ****                     while(CapSense_IsBusy());
 318:main.c        ****                     CapSense_CSDSetupWidgetExt(CapSense_BUTTON22_WDGT_ID, CapSense_BUTTON22_SNS0_ID
 319:main.c        ****                     CapSense_CSDScanExt();
 320:main.c        ****                     while(CapSense_IsBusy());
 321:main.c        ****                     CapSense_CSDSetupWidgetExt(CapSense_BUTTON23_WDGT_ID, CapSense_BUTTON23_SNS0_ID
 322:main.c        ****                     CapSense_CSDScanExt();
 323:main.c        ****                     while(CapSense_IsBusy());
 324:main.c        ****                     CapSense_CSDSetupWidgetExt(CapSense_BUTTON24_WDGT_ID, CapSense_BUTTON24_SNS0_ID
 325:main.c        ****                     CapSense_CSDScanExt();
 326:main.c        ****                     while(CapSense_IsBusy());
 327:main.c        ****                     CapSense_CSDSetupWidgetExt(CapSense_BUTTON25_WDGT_ID, CapSense_BUTTON25_SNS0_ID
 328:main.c        ****                     CapSense_CSDScanExt();
 329:main.c        ****                     while(CapSense_IsBusy());
 330:main.c        ****                     CapSense_CSDSetupWidgetExt(CapSense_BUTTON26_WDGT_ID, CapSense_BUTTON26_SNS0_ID
 331:main.c        ****                     CapSense_CSDScanExt();
 332:main.c        ****                     while(CapSense_IsBusy());
 333:main.c        ****                     CapSense_CSDSetupWidgetExt(CapSense_BUTTON27_WDGT_ID, CapSense_BUTTON27_SNS0_ID
 334:main.c        ****                     CapSense_CSDScanExt();
 335:main.c        ****                     while(CapSense_IsBusy());
 336:main.c        ****                     CapSense_CSDSetupWidgetExt(CapSense_BUTTON28_WDGT_ID, CapSense_BUTTON28_SNS0_ID
 337:main.c        ****                     CapSense_CSDScanExt();
 338:main.c        ****                     while(CapSense_IsBusy());
 339:main.c        ****                     CapSense_CSDSetupWidgetExt(CapSense_BUTTON29_WDGT_ID, CapSense_BUTTON29_SNS0_ID
 340:main.c        ****                     CapSense_CSDScanExt();
 341:main.c        ****                     while(CapSense_IsBusy());
 342:main.c        ****                     CapSense_CSDSetupWidgetExt(CapSense_BUTTON30_WDGT_ID, CapSense_BUTTON30_SNS0_ID
 343:main.c        ****                     CapSense_CSDScanExt();
 344:main.c        ****                     while(CapSense_IsBusy());
 345:main.c        ****                     CapSense_CSDSetupWidgetExt(CapSense_BUTTON31_WDGT_ID, CapSense_BUTTON31_SNS0_ID
 346:main.c        ****                     CapSense_CSDScanExt();
 347:main.c        ****                     while(CapSense_IsBusy());
 348:main.c        ****                     CapSense_CSDSetupWidgetExt(CapSense_BUTTON32_WDGT_ID, CapSense_BUTTON31_SNS0_ID
 349:main.c        ****                     CapSense_CSDScanExt();
 350:main.c        ****                     while(CapSense_IsBusy());
 351:main.c        ****                     CapSense_CSDSetupWidgetExt(CapSense_BUTTON33_WDGT_ID, CapSense_BUTTON31_SNS0_ID
 352:main.c        ****                     CapSense_CSDScanExt();
 353:main.c        **** 
 354:main.c        ****                     
 355:main.c        ****                     /* Put CPU to sleep while sensor scanning is in progress */
 356:main.c        ****                     currentState = WAIT_FOR_SCAN_COMPLETE;       
 357:main.c        ****                 }
 358:main.c        ****                 break;
 359:main.c        **** 
 360:main.c        ****             case WAIT_FOR_SCAN_COMPLETE:
 361:main.c        ****                 /* Device is in CPU Sleep until CapSense scanning is complete or
 362:main.c        ****                 *  device is woken-up by either CapSense interrupt or I2C interrupt 
 363:main.c        ****                 */
 364:main.c        ****                 /* Disable interrupts, so that ISR is not serviced while
 365:main.c        ****                 *  checking for CapSense scan status.
 366:main.c        ****                 */
 367:main.c        ****                 interruptState = CyEnterCriticalSection();
 368:main.c        ****                 
 369:main.c        ****                 /* Check if CapSense scanning is complete */
 370:main.c        ****                 if(CapSense_NOT_BUSY != CapSense_IsBusy())
 371:main.c        ****                 {
 372:main.c        ****                     /* If CapSense scanning is in progress, put CPU to sleep */
ARM GAS  C:\Users\Qinh\AppData\Local\Temp\ccYrTOvs.s 			page 8


 373:main.c        ****                     CySysPmSleep();
 374:main.c        ****                 }
 375:main.c        ****                 /* If CapSense scanning is complete, process the CapSense data */
 376:main.c        ****                 else
 377:main.c        ****                 {
 378:main.c        ****                     currentState = PROCESS_DATA;
 379:main.c        ****                 }
 380:main.c        ****                 /* Enable interrupts for servicing ISR */
 381:main.c        ****                 CyExitCriticalSection(interruptState);
 382:main.c        ****                 break;
 383:main.c        ****             
 384:main.c        ****             case PROCESS_DATA:
 385:main.c        ****                 
 386:main.c        ****                 /* Set next state to SLEEP */
 387:main.c        ****                 currentState = SLEEP;
 388:main.c        ****                 
 389:main.c        ****                 /* process button widget */
 390:main.c        ****                 //CapSense_ProcessWidget();
 391:main.c        ****             CapSense_ProcessWidget(CapSense_BUTTON0_WDGT_ID);
 392:main.c        ****             CapSense_ProcessWidget(CapSense_BUTTON1_WDGT_ID);
 393:main.c        ****             CapSense_ProcessWidget(CapSense_BUTTON2_WDGT_ID);
 394:main.c        ****             CapSense_ProcessWidget(CapSense_BUTTON3_WDGT_ID);
 395:main.c        ****             CapSense_ProcessWidget(CapSense_BUTTON4_WDGT_ID);
 396:main.c        ****             CapSense_ProcessWidget(CapSense_BUTTON5_WDGT_ID);
 397:main.c        ****             CapSense_ProcessWidget(CapSense_BUTTON6_WDGT_ID);
 398:main.c        ****             CapSense_ProcessWidget(CapSense_BUTTON7_WDGT_ID);
 399:main.c        ****             CapSense_ProcessWidget(CapSense_BUTTON8_WDGT_ID);
 400:main.c        ****             CapSense_ProcessWidget(CapSense_BUTTON9_WDGT_ID);
 401:main.c        ****             CapSense_ProcessWidget(CapSense_BUTTON10_WDGT_ID);
 402:main.c        ****             CapSense_ProcessWidget(CapSense_BUTTON11_WDGT_ID);
 403:main.c        ****             CapSense_ProcessWidget(CapSense_BUTTON12_WDGT_ID);
 404:main.c        ****             CapSense_ProcessWidget(CapSense_BUTTON13_WDGT_ID);
 405:main.c        ****             CapSense_ProcessWidget(CapSense_BUTTON14_WDGT_ID);
 406:main.c        ****             CapSense_ProcessWidget(CapSense_BUTTON15_WDGT_ID);
 407:main.c        ****             CapSense_ProcessWidget(CapSense_BUTTON16_WDGT_ID);
 408:main.c        ****             CapSense_ProcessWidget(CapSense_BUTTON17_WDGT_ID);
 409:main.c        ****             CapSense_ProcessWidget(CapSense_BUTTON18_WDGT_ID);
 410:main.c        ****             CapSense_ProcessWidget(CapSense_BUTTON19_WDGT_ID);
 411:main.c        ****             CapSense_ProcessWidget(CapSense_BUTTON20_WDGT_ID);
 412:main.c        ****             CapSense_ProcessWidget(CapSense_BUTTON21_WDGT_ID);
 413:main.c        ****             CapSense_ProcessWidget(CapSense_BUTTON22_WDGT_ID);
 414:main.c        ****             CapSense_ProcessWidget(CapSense_BUTTON23_WDGT_ID);
 415:main.c        ****             CapSense_ProcessWidget(CapSense_BUTTON24_WDGT_ID);
 416:main.c        ****             CapSense_ProcessWidget(CapSense_BUTTON25_WDGT_ID);
 417:main.c        ****             CapSense_ProcessWidget(CapSense_BUTTON26_WDGT_ID);
 418:main.c        ****             CapSense_ProcessWidget(CapSense_BUTTON27_WDGT_ID);
 419:main.c        ****             CapSense_ProcessWidget(CapSense_BUTTON28_WDGT_ID);
 420:main.c        ****             CapSense_ProcessWidget(CapSense_BUTTON29_WDGT_ID);
 421:main.c        ****             CapSense_ProcessWidget(CapSense_BUTTON30_WDGT_ID);
 422:main.c        ****             CapSense_ProcessWidget(CapSense_BUTTON31_WDGT_ID);
 423:main.c        ****             CapSense_ProcessWidget(CapSense_BUTTON32_WDGT_ID);
 424:main.c        ****             CapSense_ProcessWidget(CapSense_BUTTON33_WDGT_ID);
 425:main.c        ****             Touch.channel_raw[0] = CapSense_BUTTON0_SNS0_RAW0_VALUE;
 426:main.c        ****             Touch.channel_raw[1] = CapSense_BUTTON1_SNS0_RAW0_VALUE;
 427:main.c        ****             Touch.channel_raw[2] = CapSense_BUTTON2_SNS0_RAW0_VALUE;
 428:main.c        ****             Touch.channel_raw[3] = CapSense_BUTTON3_SNS0_RAW0_VALUE;
 429:main.c        ****             Touch.channel_raw[4] = CapSense_BUTTON4_SNS0_RAW0_VALUE;
ARM GAS  C:\Users\Qinh\AppData\Local\Temp\ccYrTOvs.s 			page 9


 430:main.c        ****             Touch.channel_raw[5] = CapSense_BUTTON5_SNS0_RAW0_VALUE;
 431:main.c        ****             Touch.channel_raw[6] = CapSense_BUTTON6_SNS0_RAW0_VALUE;
 432:main.c        ****             Touch.channel_raw[7] = CapSense_BUTTON7_SNS0_RAW0_VALUE;
 433:main.c        ****             Touch.channel_raw[8] = CapSense_BUTTON8_SNS0_RAW0_VALUE;
 434:main.c        ****             Touch.channel_raw[9] = CapSense_BUTTON9_SNS0_RAW0_VALUE;
 435:main.c        ****             Touch.channel_raw[10] = CapSense_BUTTON10_SNS0_RAW0_VALUE;
 436:main.c        ****             Touch.channel_raw[11] = CapSense_BUTTON11_SNS0_RAW0_VALUE;
 437:main.c        ****             Touch.channel_raw[12] = CapSense_BUTTON12_SNS0_RAW0_VALUE;
 438:main.c        ****             Touch.channel_raw[13] = CapSense_BUTTON13_SNS0_RAW0_VALUE;
 439:main.c        ****             Touch.channel_raw[14] = CapSense_BUTTON14_SNS0_RAW0_VALUE;
 440:main.c        ****             Touch.channel_raw[15] = CapSense_BUTTON15_SNS0_RAW0_VALUE;
 441:main.c        ****             Touch.channel_raw[16] = CapSense_BUTTON16_SNS0_RAW0_VALUE;
 442:main.c        ****             Touch.channel_raw[17] = CapSense_BUTTON17_SNS0_RAW0_VALUE;
 443:main.c        ****             Touch.channel_raw[18] = CapSense_BUTTON18_SNS0_RAW0_VALUE;
 444:main.c        ****             Touch.channel_raw[19] = CapSense_BUTTON19_SNS0_RAW0_VALUE;
 445:main.c        ****             Touch.channel_raw[20] = CapSense_BUTTON20_SNS0_RAW0_VALUE;
 446:main.c        ****             Touch.channel_raw[21] = CapSense_BUTTON21_SNS0_RAW0_VALUE;
 447:main.c        ****             Touch.channel_raw[22] = CapSense_BUTTON22_SNS0_RAW0_VALUE;
 448:main.c        ****             Touch.channel_raw[23] = CapSense_BUTTON23_SNS0_RAW0_VALUE;
 449:main.c        ****             Touch.channel_raw[24] = CapSense_BUTTON24_SNS0_RAW0_VALUE;
 450:main.c        ****             Touch.channel_raw[25] = CapSense_BUTTON25_SNS0_RAW0_VALUE;
 451:main.c        ****             Touch.channel_raw[26] = CapSense_BUTTON26_SNS0_RAW0_VALUE;
 452:main.c        ****             Touch.channel_raw[27] = CapSense_BUTTON27_SNS0_RAW0_VALUE;
 453:main.c        ****             Touch.channel_raw[28] = CapSense_BUTTON28_SNS0_RAW0_VALUE;
 454:main.c        ****             Touch.channel_raw[29] = CapSense_BUTTON29_SNS0_RAW0_VALUE;
 455:main.c        ****             Touch.channel_raw[30] = CapSense_BUTTON30_SNS0_RAW0_VALUE;
 456:main.c        ****             Touch.channel_raw[31] = CapSense_BUTTON31_SNS0_RAW0_VALUE;
 457:main.c        ****             Touch.channel_raw[32] = CapSense_BUTTON32_SNS0_RAW0_VALUE;
 458:main.c        ****             Touch.channel_raw[33] = CapSense_BUTTON33_SNS0_RAW0_VALUE;
 459:main.c        **** 
 460:main.c        ****             for(uint8_t i = 0;i<34;i++){
 461:main.c        ****                 Touch.channel_raw[i] = Touch.channel_raw[i] << resolution_zoom_map[i];
 462:main.c        ****             }
 463:main.c        ****             for(uint8_t i = 0;i<70;i++){
 464:main.c        ****                 UART_1_UartPutChar(Touch.data[i]);
 465:main.c        ****             }
 466:main.c        ****                 if(deviceScanMode == FAST_SCAN_MODE)
 467:main.c        ****                 {  
 468:main.c        ****                     /* If button is active, reset software counter */
 469:main.c        ****                     if (CapSense_IsAnyWidgetActive())
 470:main.c        ****                     {
 471:main.c        ****                         /* Reset the software counter if any button is active. */
 472:main.c        ****                         softCounter = RESET;
 473:main.c        ****                     }
 474:main.c        ****                     else
 475:main.c        ****                     {
 476:main.c        ****                         /* Increment the software counter every LOOP_TIME_FASTSCANMODE if button 
 477:main.c        ****                         *  touch is not detected. 
 478:main.c        ****                         */
 479:main.c        ****                         softCounter++;  
 480:main.c        ****                         
 481:main.c        ****                         /* If finger is not on sensor for SCANMODE_TIMEOUT_VALUE, switch off the 
 482:main.c        ****                         *  LEDs and switch mode to slow scan mode to reduce power consumption 
 483:main.c        ****                         */
 484:main.c        ****                         if(softCounter >= SCANMODE_TIMEOUT_VALUE)
 485:main.c        ****                         {   
 486:main.c        ****                             /* Watchdog is configured to generate interrupt at LOOP_TIME_SLOWSCANMO
ARM GAS  C:\Users\Qinh\AppData\Local\Temp\ccYrTOvs.s 			page 10


 487:main.c        ****                             watchdogMatchValue = wdtMatchValSlowMode;
 488:main.c        ****                             
 489:main.c        ****                             #if(CY_IP_SRSSV2)
 490:main.c        ****                                 /* Configure Match value */
 491:main.c        ****                                 CySysWdtWriteMatch(CY_SYS_WDT_COUNTER0, watchdogMatchValue);
 492:main.c        ****                             #endif
 493:main.c        ****         
 494:main.c        ****                             /* Set mode to slow scan mode to scan sensors at LOOP_TIME_SLOWSCANMODE
 495:main.c        ****                             deviceScanMode = SLOW_SCAN_MODE;
 496:main.c        ****                         }
 497:main.c        ****                     }
 498:main.c        ****                 }
 499:main.c        ****                 /* If deviceScanMode is SLOW_SCAN_MODE, perform the following tasks */   
 500:main.c        ****                 else
 501:main.c        ****                 {                    
 502:main.c        ****                     /* If button is active, switch to active mode */
 503:main.c        ****                     if (CapSense_IsAnyWidgetActive())
 504:main.c        ****                     {   
 505:main.c        ****                        /* If sensor is active in slow-scan mode, skip sleep
 506:main.c        ****                         *  and perform sensor scan
 507:main.c        ****                         */
 508:main.c        ****                         currentState = SENSOR_SCAN;
 509:main.c        ****                         
 510:main.c        ****                         /* Set watchdog match value to fast scan mode */
 511:main.c        ****                         watchdogMatchValue = wdtMatchValFastMode;      
 512:main.c        ****                         
 513:main.c        ****                         #if(CY_IP_SRSSV2)
 514:main.c        ****                             /* Configure Match value */
 515:main.c        ****                             CySysWdtWriteMatch(CY_SYS_WDT_COUNTER0, watchdogMatchValue);
 516:main.c        ****                         #endif
 517:main.c        ****                         
 518:main.c        ****                         /* Change the device mode to fast scan mode to provide fast touch response 
 519:main.c        ****                         deviceScanMode = FAST_SCAN_MODE; 
 520:main.c        ****                     }                    
 521:main.c        ****                 }
 522:main.c        ****                 currentState = SENSOR_SCAN;
 523:main.c        ****                 deviceScanMode = FAST_SCAN_MODE; 
 524:main.c        ****                 break;
 525:main.c        ****                 
 526:main.c        ****             case SLEEP:
 527:main.c        ****                 /* Put the device to deep sleep after each CapSense scan */
 528:main.c        ****                 EnterDeepSleepLowPowerMode();
 529:main.c        ****                 
 530:main.c        ****                 /* Start scanning the sensors only if interrupt occurred due to WDT.
 531:main.c        ****                    Interrupt can also occur due to I2C interrupt while tuner is running.
 532:main.c        ****                    In such cases, sensor is not scanned until WDT interrupt has occurred
 533:main.c        ****                 */
 534:main.c        ****                 if(wdtInterruptOccured)
 535:main.c        ****                 {
 536:main.c        ****                     /* Set state to scan sensor after device wakes up from sleep */
 537:main.c        ****                     currentState = SENSOR_SCAN;
 538:main.c        ****                     
 539:main.c        ****                     wdtInterruptOccured = FALSE;  
 540:main.c        ****                 }
 541:main.c        ****                 break;
 542:main.c        ****                 
 543:main.c        ****             default:
ARM GAS  C:\Users\Qinh\AppData\Local\Temp\ccYrTOvs.s 			page 11


 544:main.c        ****                 break;
 545:main.c        ****         } 
 546:main.c        ****     }  
 547:main.c        **** }    
 548:main.c        **** 
 549:main.c        **** /*******************************************************************************
 550:main.c        **** * Function Name: EnterDeepSleepLowPowerMode
 551:main.c        **** ********************************************************************************
 552:main.c        **** * Summary:
 553:main.c        **** *  Put the device to DeepSleep power mode. Reconfigures the Components for 
 554:main.c        **** *  normal operation after wake-up. 
 555:main.c        **** *
 556:main.c        **** * Parameters:
 557:main.c        **** *  void
 558:main.c        **** *
 559:main.c        **** * Return:
 560:main.c        **** *  void
 561:main.c        **** *
 562:main.c        **** * Theory: Before going to deep sleep, the API checks for any
 563:main.c        **** *         I2C activity and waits till the I2C transaction is complete before 
 564:main.c        **** *         the device is put to deep sleep. 
 565:main.c        **** *
 566:main.c        **** * Side Effects: None
 567:main.c        **** *
 568:main.c        **** * Note:
 569:main.c        **** *
 570:main.c        **** *******************************************************************************/
 571:main.c        **** void EnterDeepSleepLowPowerMode(void)
 572:main.c        **** {
  28              		.loc 1 572 0
  29              		.cfi_startproc
  30              		@ args = 0, pretend = 0, frame = 0
  31              		@ frame_needed = 0, uses_anonymous_args = 0
  32 0000 10B5     		push	{r4, lr}
  33              		.cfi_def_cfa_offset 8
  34              		.cfi_offset 4, -8
  35              		.cfi_offset 14, -4
 573:main.c        ****     /* EZI2C_Sleep routine should be called only after on-going I2C 
 574:main.c        ****     *  transaction is complete
 575:main.c        ****     *  Enter critical section to lock slave state 
 576:main.c        ****     */
 577:main.c        ****     interruptState = CyEnterCriticalSection();
  36              		.loc 1 577 0
  37 0002 FFF7FEFF 		bl	CyEnterCriticalSection
  38              	.LVL0:
  39 0006 024B     		ldr	r3, .L2
 578:main.c        ****     /* Enable interrupts */
 579:main.c        ****     CyExitCriticalSection(interruptState);
 580:main.c        **** }
  40              		.loc 1 580 0
  41              		@ sp needed
 577:main.c        ****     /* Enable interrupts */
  42              		.loc 1 577 0
  43 0008 1860     		str	r0, [r3]
 579:main.c        **** }
  44              		.loc 1 579 0
  45 000a FFF7FEFF 		bl	CyExitCriticalSection
ARM GAS  C:\Users\Qinh\AppData\Local\Temp\ccYrTOvs.s 			page 12


  46              	.LVL1:
  47              		.loc 1 580 0
  48 000e 10BD     		pop	{r4, pc}
  49              	.L3:
  50              		.align	2
  51              	.L2:
  52 0010 00000000 		.word	.LANCHOR0
  53              		.cfi_endproc
  54              	.LFE34:
  55              		.size	EnterDeepSleepLowPowerMode, .-EnterDeepSleepLowPowerMode
  56              		.section	.text.Timer_Interrupt,"ax",%progbits
  57              		.align	1
  58              		.global	Timer_Interrupt
  59              		.code	16
  60              		.thumb_func
  61              		.type	Timer_Interrupt, %function
  62              	Timer_Interrupt:
  63              	.LFB35:
 581:main.c        **** 
 582:main.c        **** /******************************************************************************
 583:main.c        **** * Function Name: Timer_Interrupt
 584:main.c        **** *******************************************************************************
 585:main.c        **** *
 586:main.c        **** * Summary:
 587:main.c        **** *  Handles the Interrupt Service Routine for the WDT timer.
 588:main.c        **** *
 589:main.c        **** * Parameters:
 590:main.c        **** *  None.
 591:main.c        **** *
 592:main.c        **** * Return:
 593:main.c        **** *  None.
 594:main.c        **** *
 595:main.c        **** * Theory: The interrupt is cleared on the ISR as watchdog in this project is 
 596:main.c        **** *         used for timing maintenance only. Match value is updated to maintain 
 597:main.c        **** *         the loop time. 
 598:main.c        **** *
 599:main.c        **** * Side Effects: None
 600:main.c        **** *
 601:main.c        **** * Note:
 602:main.c        **** *
 603:main.c        **** *******************************************************************************/
 604:main.c        **** CY_ISR(Timer_Interrupt)
 605:main.c        **** {
  64              		.loc 1 605 0
  65              		.cfi_startproc
  66              		@ args = 0, pretend = 0, frame = 0
  67              		@ frame_needed = 0, uses_anonymous_args = 0
  68 0000 10B5     		push	{r4, lr}
  69              		.cfi_def_cfa_offset 8
  70              		.cfi_offset 4, -8
  71              		.cfi_offset 14, -4
 606:main.c        ****     #if (CY_IP_SRSSV2)    
 607:main.c        ****         /* Clears interrupt request  */
 608:main.c        ****         CySysWdtClearInterrupt(CY_SYS_WDT_COUNTER0_INT);
 609:main.c        ****     #else
 610:main.c        ****         /* Clear the watchdog interrupt */
 611:main.c        ****         CySysWdtClearInterrupt();    
ARM GAS  C:\Users\Qinh\AppData\Local\Temp\ccYrTOvs.s 			page 13


  72              		.loc 1 611 0
  73 0002 FFF7FEFF 		bl	CySysWdtClearInterrupt
  74              	.LVL2:
 612:main.c        ****         
 613:main.c        ****         /* WDT match value is updated in order to obtain periodic interrupts */
 614:main.c        ****         CySysWdtWriteMatch(CySysWdtReadMatch() + watchdogMatchValue); 
  75              		.loc 1 614 0
  76 0006 FFF7FEFF 		bl	CySysWdtGetMatch
  77              	.LVL3:
  78 000a 044B     		ldr	r3, .L5
 615:main.c        ****     #endif /* !CY_IP_SRSSV2 */
 616:main.c        ****     
 617:main.c        ****     /* Set to variable that indicates that WDT interrupt had triggered*/
 618:main.c        ****     wdtInterruptOccured = TRUE;   
 619:main.c        **** }
  79              		.loc 1 619 0
  80              		@ sp needed
 614:main.c        ****     #endif /* !CY_IP_SRSSV2 */
  81              		.loc 1 614 0
  82 000c 1B68     		ldr	r3, [r3]
  83 000e C018     		adds	r0, r0, r3
  84 0010 FFF7FEFF 		bl	CySysWdtSetMatch
  85              	.LVL4:
 618:main.c        **** }
  86              		.loc 1 618 0
  87 0014 0122     		movs	r2, #1
  88 0016 024B     		ldr	r3, .L5+4
  89 0018 1A71     		strb	r2, [r3, #4]
  90              		.loc 1 619 0
  91 001a 10BD     		pop	{r4, pc}
  92              	.L6:
  93              		.align	2
  94              	.L5:
  95 001c 00000000 		.word	.LANCHOR1
  96 0020 00000000 		.word	.LANCHOR0
  97              		.cfi_endproc
  98              	.LFE35:
  99              		.size	Timer_Interrupt, .-Timer_Interrupt
 100              		.global	__aeabi_uidiv
 101              		.section	.text.CalibrateWdtMatchValue,"ax",%progbits
 102              		.align	1
 103              		.global	CalibrateWdtMatchValue
 104              		.code	16
 105              		.thumb_func
 106              		.type	CalibrateWdtMatchValue, %function
 107              	CalibrateWdtMatchValue:
 108              	.LFB37:
 620:main.c        **** 
 621:main.c        **** /******************************************************************************
 622:main.c        **** * Function Name: WDT_Start
 623:main.c        **** *******************************************************************************
 624:main.c        **** *
 625:main.c        **** * Summary:
 626:main.c        **** *  Configures WDT.
 627:main.c        **** *
 628:main.c        **** * Parameters:
 629:main.c        **** *  None.
ARM GAS  C:\Users\Qinh\AppData\Local\Temp\ccYrTOvs.s 			page 14


 630:main.c        **** *
 631:main.c        **** * Return:
 632:main.c        **** *  None.
 633:main.c        **** *
 634:main.c        **** * Theory: This API unmasks the WDT interrupt to route the interrupt to CPU and 
 635:main.c        **** *         configures the ISR.
 636:main.c        **** *
 637:main.c        **** * Side Effects: None
 638:main.c        **** *
 639:main.c        **** * Note:
 640:main.c        **** *
 641:main.c        **** *******************************************************************************/
 642:main.c        **** void WDT_Start(void)
 643:main.c        **** {  
 644:main.c        ****     /* Get the actual match value required to generate a given delay */
 645:main.c        ****     watchdogMatchValue = WDT_TIMEOUT_FAST_SCAN;
 646:main.c        ****     CalibrateWdtMatchValue();
 647:main.c        ****     wdtMatchValFastMode  = watchdogMatchValue;
 648:main.c        ****     
 649:main.c        ****     watchdogMatchValue = WDT_TIMEOUT_SLOW_SCAN;
 650:main.c        ****     CalibrateWdtMatchValue();
 651:main.c        ****     wdtMatchValSlowMode = watchdogMatchValue;
 652:main.c        ****     
 653:main.c        ****     #if (CY_IP_SRSSV2)    
 654:main.c        ****         /* Configure Match value */
 655:main.c        ****         CySysWdtWriteMatch(CY_SYS_WDT_COUNTER0, wdtMatchValFastMode);
 656:main.c        ****         
 657:main.c        ****         /* Set up WDT mode */
 658:main.c        ****         CySysWdtSetMode(CY_SYS_WDT_COUNTER0, CY_SYS_WDT_MODE_INT);
 659:main.c        ****         
 660:main.c        ****         /* Automatically reset counter */
 661:main.c        ****         CySysWdtSetClearOnMatch(CY_SYS_WDT_COUNTER0, ENABLE_WDT);
 662:main.c        ****         CySysWdtResetCounters(CY_SYS_WDT_COUNTER0_RESET);
 663:main.c        ****         
 664:main.c        ****         /* Enable WDT */
 665:main.c        ****         CySysWdtEnable(CY_SYS_WDT_COUNTER0_MASK);
 666:main.c        ****     #else 
 667:main.c        ****         /* WDT match value is updated in order to obtain periodic interrupts */
 668:main.c        ****         CySysWdtWriteMatch(CySysWdtReadMatch() + watchdogMatchValue);
 669:main.c        ****         
 670:main.c        ****         /* Enable WDT interrupt */
 671:main.c        ****         CySysWdtUnmaskInterrupt();
 672:main.c        ****     #endif
 673:main.c        **** }
 674:main.c        **** /*******************************************************************************
 675:main.c        **** * Function Name: CalibrateWdtMatchValue
 676:main.c        **** ********************************************************************************
 677:main.c        **** * Summary: 
 678:main.c        **** *  This function calibrates the match value of the Watchdog Timer 
 679:main.c        **** *
 680:main.c        **** * Parameter:
 681:main.c        **** *  None
 682:main.c        **** *
 683:main.c        **** * Return:
 684:main.c        **** *  void
 685:main.c        **** *
 686:main.c        **** * Theory: The ILO is calibrated using IMO to improve the accuracy of ILO.
ARM GAS  C:\Users\Qinh\AppData\Local\Temp\ccYrTOvs.s 			page 15


 687:main.c        **** *
 688:main.c        **** * Side Effects: None
 689:main.c        **** *
 690:main.c        **** * Note:
 691:main.c        **** *
 692:main.c        **** *******************************************************************************/
 693:main.c        **** void CalibrateWdtMatchValue()
 694:main.c        **** {    
 109              		.loc 1 694 0
 110              		.cfi_startproc
 111              		@ args = 0, pretend = 0, frame = 8
 112              		@ frame_needed = 0, uses_anonymous_args = 0
 695:main.c        ****     /* Contains ILO Trimmed value */
 696:main.c        ****     uint32 tempIloCounts = 0u;
 113              		.loc 1 696 0
 114 0000 0023     		movs	r3, #0
 694:main.c        ****     /* Contains ILO Trimmed value */
 115              		.loc 1 694 0
 116 0002 13B5     		push	{r0, r1, r4, lr}
 117              		.cfi_def_cfa_offset 16
 118              		.cfi_offset 0, -16
 119              		.cfi_offset 1, -12
 120              		.cfi_offset 4, -8
 121              		.cfi_offset 14, -4
 697:main.c        ****     
 698:main.c        ****     /* Desired delay in microseconds for ILO Trimming */
 699:main.c        ****     uint32 desiredDelay = ((watchdogMatchValue / ILO_CLOCK_FACTOR) * MILLI_SEC_TO_MICRO_SEC);  
 122              		.loc 1 699 0
 123 0004 084C     		ldr	r4, .L10
 700:main.c        ****     
 701:main.c        ****     /* Get the ILO compensated counts i.e. the actual counts for the desired ILO frequency 
 702:main.c        ****     *  Trimming is done to improve ILO accuracy using IMO; ILO default accuracy is +/- 60% 
 703:main.c        ****     */
 704:main.c        ****     if(CYRET_SUCCESS == CySysClkIloCompensate(desiredDelay, &tempIloCounts))
 124              		.loc 1 704 0
 125 0006 2821     		movs	r1, #40
 699:main.c        ****     
 126              		.loc 1 699 0
 127 0008 2068     		ldr	r0, [r4]
 128              	.LVL5:
 696:main.c        ****     
 129              		.loc 1 696 0
 130 000a 0193     		str	r3, [sp, #4]
 131              		.loc 1 704 0
 132 000c FFF7FEFF 		bl	__aeabi_uidiv
 133              	.LVL6:
 134 0010 FA23     		movs	r3, #250
 135 0012 9B00     		lsls	r3, r3, #2
 136 0014 5843     		muls	r0, r3
 137 0016 01A9     		add	r1, sp, #4
 138 0018 FFF7FEFF 		bl	CySysClkIloCompensate
 139              	.LVL7:
 140 001c 0028     		cmp	r0, #0
 141 001e 01D1     		bne	.L7
 705:main.c        ****     {    
 706:main.c        ****         watchdogMatchValue = (uint32)tempIloCounts;
 142              		.loc 1 706 0
ARM GAS  C:\Users\Qinh\AppData\Local\Temp\ccYrTOvs.s 			page 16


 143 0020 019B     		ldr	r3, [sp, #4]
 144 0022 2360     		str	r3, [r4]
 145              	.L7:
 707:main.c        ****     }    
 708:main.c        **** }
 146              		.loc 1 708 0
 147              		@ sp needed
 148 0024 13BD     		pop	{r0, r1, r4, pc}
 149              	.L11:
 150 0026 C046     		.align	2
 151              	.L10:
 152 0028 00000000 		.word	.LANCHOR1
 153              		.cfi_endproc
 154              	.LFE37:
 155              		.size	CalibrateWdtMatchValue, .-CalibrateWdtMatchValue
 156              		.section	.text.WDT_Start,"ax",%progbits
 157              		.align	1
 158              		.global	WDT_Start
 159              		.code	16
 160              		.thumb_func
 161              		.type	WDT_Start, %function
 162              	WDT_Start:
 163              	.LFB36:
 643:main.c        ****     /* Get the actual match value required to generate a given delay */
 164              		.loc 1 643 0
 165              		.cfi_startproc
 166              		@ args = 0, pretend = 0, frame = 0
 167              		@ frame_needed = 0, uses_anonymous_args = 0
 645:main.c        ****     CalibrateWdtMatchValue();
 168              		.loc 1 645 0
 169 0000 9623     		movs	r3, #150
 643:main.c        ****     /* Get the actual match value required to generate a given delay */
 170              		.loc 1 643 0
 171 0002 70B5     		push	{r4, r5, r6, lr}
 172              		.cfi_def_cfa_offset 16
 173              		.cfi_offset 4, -16
 174              		.cfi_offset 5, -12
 175              		.cfi_offset 6, -8
 176              		.cfi_offset 14, -4
 645:main.c        ****     CalibrateWdtMatchValue();
 177              		.loc 1 645 0
 178 0004 0B4C     		ldr	r4, .L13
 179 0006 DB00     		lsls	r3, r3, #3
 180 0008 2360     		str	r3, [r4]
 646:main.c        ****     wdtMatchValFastMode  = watchdogMatchValue;
 181              		.loc 1 646 0
 182 000a FFF7FEFF 		bl	CalibrateWdtMatchValue
 183              	.LVL8:
 647:main.c        ****     
 184              		.loc 1 647 0
 185 000e 2368     		ldr	r3, [r4]
 186 0010 094D     		ldr	r5, .L13+4
 673:main.c        **** /*******************************************************************************
 187              		.loc 1 673 0
 188              		@ sp needed
 647:main.c        ****     
 189              		.loc 1 647 0
ARM GAS  C:\Users\Qinh\AppData\Local\Temp\ccYrTOvs.s 			page 17


 190 0012 AB60     		str	r3, [r5, #8]
 649:main.c        ****     CalibrateWdtMatchValue();
 191              		.loc 1 649 0
 192 0014 FA23     		movs	r3, #250
 193 0016 5B01     		lsls	r3, r3, #5
 194 0018 2360     		str	r3, [r4]
 650:main.c        ****     wdtMatchValSlowMode = watchdogMatchValue;
 195              		.loc 1 650 0
 196 001a FFF7FEFF 		bl	CalibrateWdtMatchValue
 197              	.LVL9:
 651:main.c        ****     
 198              		.loc 1 651 0
 199 001e 2368     		ldr	r3, [r4]
 200 0020 EB60     		str	r3, [r5, #12]
 668:main.c        ****         
 201              		.loc 1 668 0
 202 0022 FFF7FEFF 		bl	CySysWdtGetMatch
 203              	.LVL10:
 204 0026 2368     		ldr	r3, [r4]
 205 0028 C018     		adds	r0, r0, r3
 206 002a FFF7FEFF 		bl	CySysWdtSetMatch
 207              	.LVL11:
 671:main.c        ****     #endif
 208              		.loc 1 671 0
 209 002e FFF7FEFF 		bl	CySysWdtUnmaskInterrupt
 210              	.LVL12:
 673:main.c        **** /*******************************************************************************
 211              		.loc 1 673 0
 212 0032 70BD     		pop	{r4, r5, r6, pc}
 213              	.L14:
 214              		.align	2
 215              	.L13:
 216 0034 00000000 		.word	.LANCHOR1
 217 0038 00000000 		.word	.LANCHOR0
 218              		.cfi_endproc
 219              	.LFE36:
 220              		.size	WDT_Start, .-WDT_Start
 221              		.section	.text.startup.main,"ax",%progbits
 222              		.align	1
 223              		.global	main
 224              		.code	16
 225              		.thumb_func
 226              		.type	main, %function
 227              	main:
 228              	.LFB33:
 160:main.c        ****     /* Variable to hold the current device state 
 229              		.loc 1 160 0
 230              		.cfi_startproc
 231              		@ args = 0, pretend = 0, frame = 8
 232              		@ frame_needed = 0, uses_anonymous_args = 0
 233              	.LVL13:
 234 0000 F7B5     		push	{r0, r1, r2, r4, r5, r6, r7, lr}
 235              		.cfi_def_cfa_offset 32
 236              		.cfi_offset 0, -32
 237              		.cfi_offset 1, -28
 238              		.cfi_offset 2, -24
 239              		.cfi_offset 4, -20
ARM GAS  C:\Users\Qinh\AppData\Local\Temp\ccYrTOvs.s 			page 18


 240              		.cfi_offset 5, -16
 241              		.cfi_offset 6, -12
 242              		.cfi_offset 7, -8
 243              		.cfi_offset 14, -4
 176:main.c        ****     UART_1_Start();
 244              		.loc 1 176 0
 245              		.syntax divided
 246              	@ 176 "main.c" 1
 247 0002 62B6     		CPSIE   i
 248              	@ 0 "" 2
 177:main.c        **** 
 249              		.loc 1 177 0
 250              		.thumb
 251              		.syntax unified
 252 0004 FFF7FEFF 		bl	UART_1_Start
 253              	.LVL14:
 183:main.c        **** 
 254              		.loc 1 183 0
 255 0008 FFF7FEFF 		bl	CapSense_Start
 256              	.LVL15:
 193:main.c        ****     resolution_zoom_map[0] = 16 - CapSense_BUTTON0_RESOLUTION_VALUE;
 257              		.loc 1 193 0
 258 000c FFF7FEFF 		bl	WDT_Start
 259              	.LVL16:
 194:main.c        ****     resolution_zoom_map[1] = 16 - CapSense_BUTTON1_RESOLUTION_VALUE;
 260              		.loc 1 194 0
 261 0010 554C     		ldr	r4, .L104
 262 0012 564A     		ldr	r2, .L104+4
 263 0014 2300     		movs	r3, r4
 264 0016 0833     		adds	r3, r3, #8
 265 0018 D98F     		ldrh	r1, [r3, #62]
 266 001a 1023     		movs	r3, #16
 267 001c 591A     		subs	r1, r3, r1
 268 001e 1170     		strb	r1, [r2]
 195:main.c        ****     resolution_zoom_map[2] = 16 - CapSense_BUTTON2_RESOLUTION_VALUE;
 269              		.loc 1 195 0
 270 0020 2100     		movs	r1, r4
 271 0022 5A31     		adds	r1, r1, #90
 272 0024 0988     		ldrh	r1, [r1]
 173:main.c        ****     
 273              		.loc 1 173 0
 274 0026 0026     		movs	r6, #0
 195:main.c        ****     resolution_zoom_map[2] = 16 - CapSense_BUTTON2_RESOLUTION_VALUE;
 275              		.loc 1 195 0
 276 0028 591A     		subs	r1, r3, r1
 277 002a 5170     		strb	r1, [r2, #1]
 196:main.c        ****     resolution_zoom_map[3] = 16 - CapSense_BUTTON3_RESOLUTION_VALUE;
 278              		.loc 1 196 0
 279 002c 2100     		movs	r1, r4
 280 002e 6E31     		adds	r1, r1, #110
 281 0030 0988     		ldrh	r1, [r1]
 164:main.c        ****     
 282              		.loc 1 164 0
 283 0032 0125     		movs	r5, #1
 196:main.c        ****     resolution_zoom_map[3] = 16 - CapSense_BUTTON3_RESOLUTION_VALUE;
 284              		.loc 1 196 0
 285 0034 591A     		subs	r1, r3, r1
ARM GAS  C:\Users\Qinh\AppData\Local\Temp\ccYrTOvs.s 			page 19


 286 0036 9170     		strb	r1, [r2, #2]
 197:main.c        ****     resolution_zoom_map[4] = 16 - CapSense_BUTTON4_RESOLUTION_VALUE;
 287              		.loc 1 197 0
 288 0038 2100     		movs	r1, r4
 289 003a 8231     		adds	r1, r1, #130
 290 003c 0988     		ldrh	r1, [r1]
 291 003e 591A     		subs	r1, r3, r1
 292 0040 D170     		strb	r1, [r2, #3]
 198:main.c        ****     resolution_zoom_map[5] = 16 - CapSense_BUTTON5_RESOLUTION_VALUE;
 293              		.loc 1 198 0
 294 0042 2100     		movs	r1, r4
 295 0044 9631     		adds	r1, r1, #150
 296 0046 0988     		ldrh	r1, [r1]
 297 0048 591A     		subs	r1, r3, r1
 298 004a 1171     		strb	r1, [r2, #4]
 199:main.c        ****     resolution_zoom_map[6] = 16 - CapSense_BUTTON6_RESOLUTION_VALUE;
 299              		.loc 1 199 0
 300 004c 2100     		movs	r1, r4
 301 004e AA31     		adds	r1, r1, #170
 302 0050 0988     		ldrh	r1, [r1]
 303 0052 591A     		subs	r1, r3, r1
 304 0054 5171     		strb	r1, [r2, #5]
 200:main.c        ****     resolution_zoom_map[7] = 16 - CapSense_BUTTON7_RESOLUTION_VALUE;
 305              		.loc 1 200 0
 306 0056 2100     		movs	r1, r4
 307 0058 BE31     		adds	r1, r1, #190
 308 005a 0988     		ldrh	r1, [r1]
 309 005c 591A     		subs	r1, r3, r1
 310 005e 9171     		strb	r1, [r2, #6]
 201:main.c        ****     resolution_zoom_map[8] = 16 - CapSense_BUTTON8_RESOLUTION_VALUE;
 311              		.loc 1 201 0
 312 0060 2100     		movs	r1, r4
 313 0062 D231     		adds	r1, r1, #210
 314 0064 0988     		ldrh	r1, [r1]
 315 0066 591A     		subs	r1, r3, r1
 316 0068 D171     		strb	r1, [r2, #7]
 202:main.c        ****     resolution_zoom_map[9] = 16 - CapSense_BUTTON9_RESOLUTION_VALUE;
 317              		.loc 1 202 0
 318 006a 2100     		movs	r1, r4
 319 006c E631     		adds	r1, r1, #230
 320 006e 0988     		ldrh	r1, [r1]
 321 0070 591A     		subs	r1, r3, r1
 322 0072 1172     		strb	r1, [r2, #8]
 203:main.c        ****     resolution_zoom_map[10] = 16 - CapSense_BUTTON10_RESOLUTION_VALUE;
 323              		.loc 1 203 0
 324 0074 2100     		movs	r1, r4
 325 0076 FA31     		adds	r1, r1, #250
 326 0078 0988     		ldrh	r1, [r1]
 327 007a 591A     		subs	r1, r3, r1
 328 007c 5172     		strb	r1, [r2, #9]
 204:main.c        ****     resolution_zoom_map[11] = 16 - CapSense_BUTTON11_RESOLUTION_VALUE;
 329              		.loc 1 204 0
 330 007e 2100     		movs	r1, r4
 331 0080 FE31     		adds	r1, r1, #254
 332 0082 088A     		ldrh	r0, [r1, #16]
 333 0084 181A     		subs	r0, r3, r0
 334 0086 9072     		strb	r0, [r2, #10]
ARM GAS  C:\Users\Qinh\AppData\Local\Temp\ccYrTOvs.s 			page 20


 205:main.c        ****     resolution_zoom_map[12] = 16 - CapSense_BUTTON12_RESOLUTION_VALUE;
 335              		.loc 1 205 0
 336 0088 888C     		ldrh	r0, [r1, #36]
 337 008a 181A     		subs	r0, r3, r0
 338 008c D072     		strb	r0, [r2, #11]
 206:main.c        ****     resolution_zoom_map[13] = 16 - CapSense_BUTTON13_RESOLUTION_VALUE;
 339              		.loc 1 206 0
 340 008e 098F     		ldrh	r1, [r1, #56]
 226:main.c        ****     resolution_zoom_map[33] = 16 - CapSense_BUTTON33_RESOLUTION_VALUE;
 341              		.loc 1 226 0
 342 0090 501C     		adds	r0, r2, #1
 206:main.c        ****     resolution_zoom_map[13] = 16 - CapSense_BUTTON13_RESOLUTION_VALUE;
 343              		.loc 1 206 0
 344 0092 591A     		subs	r1, r3, r1
 345 0094 1173     		strb	r1, [r2, #12]
 207:main.c        ****     resolution_zoom_map[14] = 16 - CapSense_BUTTON14_RESOLUTION_VALUE;
 346              		.loc 1 207 0
 347 0096 A521     		movs	r1, #165
 348 0098 4900     		lsls	r1, r1, #1
 349 009a 615A     		ldrh	r1, [r4, r1]
 350 009c 591A     		subs	r1, r3, r1
 351 009e 5173     		strb	r1, [r2, #13]
 208:main.c        ****     resolution_zoom_map[15] = 16 - CapSense_BUTTON15_RESOLUTION_VALUE;
 352              		.loc 1 208 0
 353 00a0 AF21     		movs	r1, #175
 354 00a2 4900     		lsls	r1, r1, #1
 355 00a4 615A     		ldrh	r1, [r4, r1]
 356 00a6 591A     		subs	r1, r3, r1
 357 00a8 9173     		strb	r1, [r2, #14]
 209:main.c        ****     resolution_zoom_map[16] = 16 - CapSense_BUTTON16_RESOLUTION_VALUE;
 358              		.loc 1 209 0
 359 00aa B921     		movs	r1, #185
 360 00ac 4900     		lsls	r1, r1, #1
 361 00ae 615A     		ldrh	r1, [r4, r1]
 362 00b0 591A     		subs	r1, r3, r1
 363 00b2 D173     		strb	r1, [r2, #15]
 210:main.c        ****     resolution_zoom_map[17] = 16 - CapSense_BUTTON17_RESOLUTION_VALUE;
 364              		.loc 1 210 0
 365 00b4 C321     		movs	r1, #195
 366 00b6 4900     		lsls	r1, r1, #1
 367 00b8 615A     		ldrh	r1, [r4, r1]
 368 00ba 591A     		subs	r1, r3, r1
 369 00bc 1174     		strb	r1, [r2, #16]
 211:main.c        ****     resolution_zoom_map[18] = 16 - CapSense_BUTTON18_RESOLUTION_VALUE;
 370              		.loc 1 211 0
 371 00be CD21     		movs	r1, #205
 372 00c0 4900     		lsls	r1, r1, #1
 373 00c2 615A     		ldrh	r1, [r4, r1]
 374 00c4 591A     		subs	r1, r3, r1
 375 00c6 5174     		strb	r1, [r2, #17]
 212:main.c        ****     resolution_zoom_map[19] = 16 - CapSense_BUTTON19_RESOLUTION_VALUE;
 376              		.loc 1 212 0
 377 00c8 D721     		movs	r1, #215
 378 00ca 4900     		lsls	r1, r1, #1
 379 00cc 615A     		ldrh	r1, [r4, r1]
 380 00ce 591A     		subs	r1, r3, r1
 381 00d0 9174     		strb	r1, [r2, #18]
ARM GAS  C:\Users\Qinh\AppData\Local\Temp\ccYrTOvs.s 			page 21


 213:main.c        ****     resolution_zoom_map[20] = 16 - CapSense_BUTTON20_RESOLUTION_VALUE;
 382              		.loc 1 213 0
 383 00d2 E121     		movs	r1, #225
 384 00d4 4900     		lsls	r1, r1, #1
 385 00d6 615A     		ldrh	r1, [r4, r1]
 386 00d8 591A     		subs	r1, r3, r1
 387 00da D174     		strb	r1, [r2, #19]
 214:main.c        ****     resolution_zoom_map[21] = 16 - CapSense_BUTTON21_RESOLUTION_VALUE;
 388              		.loc 1 214 0
 389 00dc EB21     		movs	r1, #235
 390 00de 4900     		lsls	r1, r1, #1
 391 00e0 615A     		ldrh	r1, [r4, r1]
 392 00e2 591A     		subs	r1, r3, r1
 393 00e4 1175     		strb	r1, [r2, #20]
 215:main.c        ****     resolution_zoom_map[22] = 16 - CapSense_BUTTON22_RESOLUTION_VALUE;
 394              		.loc 1 215 0
 395 00e6 F521     		movs	r1, #245
 396 00e8 4900     		lsls	r1, r1, #1
 397 00ea 615A     		ldrh	r1, [r4, r1]
 398 00ec 591A     		subs	r1, r3, r1
 399 00ee 5175     		strb	r1, [r2, #21]
 216:main.c        ****     resolution_zoom_map[23] = 16 - CapSense_BUTTON23_RESOLUTION_VALUE;
 400              		.loc 1 216 0
 401 00f0 FF21     		movs	r1, #255
 402 00f2 4900     		lsls	r1, r1, #1
 403 00f4 615A     		ldrh	r1, [r4, r1]
 404 00f6 591A     		subs	r1, r3, r1
 405 00f8 9175     		strb	r1, [r2, #22]
 217:main.c        ****     resolution_zoom_map[24] = 16 - CapSense_BUTTON24_RESOLUTION_VALUE;
 406              		.loc 1 217 0
 407 00fa 1D49     		ldr	r1, .L104+8
 408 00fc 615A     		ldrh	r1, [r4, r1]
 409 00fe 591A     		subs	r1, r3, r1
 410 0100 D175     		strb	r1, [r2, #23]
 218:main.c        ****     resolution_zoom_map[25] = 16 - CapSense_BUTTON25_RESOLUTION_VALUE;
 411              		.loc 1 218 0
 412 0102 1C49     		ldr	r1, .L104+12
 413 0104 615A     		ldrh	r1, [r4, r1]
 414 0106 591A     		subs	r1, r3, r1
 415 0108 1176     		strb	r1, [r2, #24]
 219:main.c        ****     resolution_zoom_map[26] = 16 - CapSense_BUTTON26_RESOLUTION_VALUE;
 416              		.loc 1 219 0
 417 010a 1B49     		ldr	r1, .L104+16
 418 010c 615A     		ldrh	r1, [r4, r1]
 419 010e 591A     		subs	r1, r3, r1
 420 0110 5176     		strb	r1, [r2, #25]
 220:main.c        ****     resolution_zoom_map[27] = 16 - CapSense_BUTTON27_RESOLUTION_VALUE;
 421              		.loc 1 220 0
 422 0112 1A49     		ldr	r1, .L104+20
 423 0114 615A     		ldrh	r1, [r4, r1]
 424 0116 591A     		subs	r1, r3, r1
 425 0118 9176     		strb	r1, [r2, #26]
 221:main.c        ****     resolution_zoom_map[28] = 16 - CapSense_BUTTON28_RESOLUTION_VALUE;
 426              		.loc 1 221 0
 427 011a 1949     		ldr	r1, .L104+24
 428 011c 615A     		ldrh	r1, [r4, r1]
 429 011e 591A     		subs	r1, r3, r1
ARM GAS  C:\Users\Qinh\AppData\Local\Temp\ccYrTOvs.s 			page 22


 430 0120 D176     		strb	r1, [r2, #27]
 222:main.c        ****     resolution_zoom_map[29] = 16 - CapSense_BUTTON29_RESOLUTION_VALUE;
 431              		.loc 1 222 0
 432 0122 1849     		ldr	r1, .L104+28
 433 0124 615A     		ldrh	r1, [r4, r1]
 434 0126 591A     		subs	r1, r3, r1
 435 0128 1177     		strb	r1, [r2, #28]
 223:main.c        ****     resolution_zoom_map[30] = 16 - CapSense_BUTTON30_RESOLUTION_VALUE;
 436              		.loc 1 223 0
 437 012a 1749     		ldr	r1, .L104+32
 438 012c 615A     		ldrh	r1, [r4, r1]
 439 012e 591A     		subs	r1, r3, r1
 440 0130 5177     		strb	r1, [r2, #29]
 224:main.c        ****     resolution_zoom_map[31] = 16 - CapSense_BUTTON31_RESOLUTION_VALUE;
 441              		.loc 1 224 0
 442 0132 1649     		ldr	r1, .L104+36
 443 0134 615A     		ldrh	r1, [r4, r1]
 444 0136 591A     		subs	r1, r3, r1
 445 0138 9177     		strb	r1, [r2, #30]
 225:main.c        ****     resolution_zoom_map[32] = 16 - CapSense_BUTTON32_RESOLUTION_VALUE;
 446              		.loc 1 225 0
 447 013a 1549     		ldr	r1, .L104+40
 448 013c 615A     		ldrh	r1, [r4, r1]
 449 013e 591A     		subs	r1, r3, r1
 450 0140 D177     		strb	r1, [r2, #31]
 226:main.c        ****     resolution_zoom_map[33] = 16 - CapSense_BUTTON33_RESOLUTION_VALUE;
 451              		.loc 1 226 0
 452 0142 1449     		ldr	r1, .L104+44
 453 0144 615A     		ldrh	r1, [r4, r1]
 454 0146 591A     		subs	r1, r3, r1
 455 0148 C177     		strb	r1, [r0, #31]
 227:main.c        ****     for(;;)
 456              		.loc 1 227 0
 457 014a 1349     		ldr	r1, .L104+48
 458 014c 615A     		ldrh	r1, [r4, r1]
 459 014e 0192     		str	r2, [sp, #4]
 460 0150 5B1A     		subs	r3, r3, r1
 461 0152 911C     		adds	r1, r2, #2
 462 0154 CB77     		strb	r3, [r1, #31]
 463              	.LVL17:
 464              	.L16:
 231:main.c        ****         {
 465              		.loc 1 231 0
 466 0156 681E     		subs	r0, r5, #1
 467              	.L17:
 468              	.LVL18:
 469 0158 0328     		cmp	r0, #3
 470 015a FDD8     		bhi	.L17
 471 015c FFF7FEFF 		bl	__gnu_thumb1_case_uhi
 472              	.L19:
 473 0160 1E00     		.2byte	(.L18-.L19)/2
 474 0162 5201     		.2byte	(.L20-.L19)/2
 475 0164 6301     		.2byte	(.L21-.L19)/2
 476 0166 6602     		.2byte	(.L22-.L19)/2
 477              		.p2align 1
 478              	.L105:
 479              		.align	2
ARM GAS  C:\Users\Qinh\AppData\Local\Temp\ccYrTOvs.s 			page 23


 480              	.L104:
 481 0168 00000000 		.word	CapSense_dsRam
 482 016c 00000000 		.word	resolution_zoom_map
 483 0170 12020000 		.word	530
 484 0174 26020000 		.word	550
 485 0178 3A020000 		.word	570
 486 017c 4E020000 		.word	590
 487 0180 62020000 		.word	610
 488 0184 76020000 		.word	630
 489 0188 8A020000 		.word	650
 490 018c 9E020000 		.word	670
 491 0190 B2020000 		.word	690
 492 0194 C6020000 		.word	710
 493 0198 DA020000 		.word	730
 494              	.L18:
 495              	.LVL19:
 235:main.c        ****                 {
 496              		.loc 1 235 0
 497 019c FFF7FEFF 		bl	CapSense_IsBusy
 498              	.LVL20:
 499 01a0 0028     		cmp	r0, #0
 500 01a2 D8D1     		bne	.L16
 252:main.c        ****                     CapSense_CSDScanExt();
 501              		.loc 1 252 0
 502 01a4 0100     		movs	r1, r0
 503 01a6 FFF7FEFF 		bl	CapSense_CSDSetupWidgetExt
 504              	.LVL21:
 253:main.c        ****                     while(CapSense_IsBusy());
 505              		.loc 1 253 0
 506 01aa FFF7FEFF 		bl	CapSense_CSDScanExt
 507              	.LVL22:
 508              	.L24:
 254:main.c        ****                     CapSense_CSDSetupWidgetExt(CapSense_BUTTON1_WDGT_ID, CapSense_BUTTON1_SNS0_ID);
 509              		.loc 1 254 0 discriminator 1
 510 01ae FFF7FEFF 		bl	CapSense_IsBusy
 511              	.LVL23:
 512 01b2 011E     		subs	r1, r0, #0
 513 01b4 FBD1     		bne	.L24
 255:main.c        ****                     CapSense_CSDScanExt();
 514              		.loc 1 255 0
 515 01b6 0120     		movs	r0, #1
 516 01b8 FFF7FEFF 		bl	CapSense_CSDSetupWidgetExt
 517              	.LVL24:
 256:main.c        ****                     while(CapSense_IsBusy());
 518              		.loc 1 256 0
 519 01bc FFF7FEFF 		bl	CapSense_CSDScanExt
 520              	.LVL25:
 521              	.L25:
 257:main.c        ****                     CapSense_CSDSetupWidgetExt(CapSense_BUTTON2_WDGT_ID, CapSense_BUTTON2_SNS0_ID);
 522              		.loc 1 257 0 discriminator 1
 523 01c0 FFF7FEFF 		bl	CapSense_IsBusy
 524              	.LVL26:
 525 01c4 011E     		subs	r1, r0, #0
 526 01c6 FBD1     		bne	.L25
 258:main.c        ****                     CapSense_CSDScanExt();
 527              		.loc 1 258 0
 528 01c8 0220     		movs	r0, #2
ARM GAS  C:\Users\Qinh\AppData\Local\Temp\ccYrTOvs.s 			page 24


 529 01ca FFF7FEFF 		bl	CapSense_CSDSetupWidgetExt
 530              	.LVL27:
 259:main.c        ****                     while(CapSense_IsBusy());
 531              		.loc 1 259 0
 532 01ce FFF7FEFF 		bl	CapSense_CSDScanExt
 533              	.LVL28:
 534              	.L26:
 260:main.c        ****                     CapSense_CSDSetupWidgetExt(CapSense_BUTTON3_WDGT_ID, CapSense_BUTTON3_SNS0_ID);
 535              		.loc 1 260 0 discriminator 1
 536 01d2 FFF7FEFF 		bl	CapSense_IsBusy
 537              	.LVL29:
 538 01d6 011E     		subs	r1, r0, #0
 539 01d8 FBD1     		bne	.L26
 261:main.c        ****                     CapSense_CSDScanExt();
 540              		.loc 1 261 0
 541 01da 0320     		movs	r0, #3
 542 01dc FFF7FEFF 		bl	CapSense_CSDSetupWidgetExt
 543              	.LVL30:
 262:main.c        ****                     while(CapSense_IsBusy());
 544              		.loc 1 262 0
 545 01e0 FFF7FEFF 		bl	CapSense_CSDScanExt
 546              	.LVL31:
 547              	.L27:
 263:main.c        ****                     CapSense_CSDSetupWidgetExt(CapSense_BUTTON4_WDGT_ID, CapSense_BUTTON4_SNS0_ID);
 548              		.loc 1 263 0 discriminator 1
 549 01e4 FFF7FEFF 		bl	CapSense_IsBusy
 550              	.LVL32:
 551 01e8 011E     		subs	r1, r0, #0
 552 01ea FBD1     		bne	.L27
 264:main.c        ****                     CapSense_CSDScanExt();
 553              		.loc 1 264 0
 554 01ec 0420     		movs	r0, #4
 555 01ee FFF7FEFF 		bl	CapSense_CSDSetupWidgetExt
 556              	.LVL33:
 265:main.c        ****                     while(CapSense_IsBusy());
 557              		.loc 1 265 0
 558 01f2 FFF7FEFF 		bl	CapSense_CSDScanExt
 559              	.LVL34:
 560              	.L28:
 266:main.c        ****                     CapSense_CSDSetupWidgetExt(CapSense_BUTTON5_WDGT_ID, CapSense_BUTTON5_SNS0_ID);
 561              		.loc 1 266 0 discriminator 1
 562 01f6 FFF7FEFF 		bl	CapSense_IsBusy
 563              	.LVL35:
 564 01fa 011E     		subs	r1, r0, #0
 565 01fc FBD1     		bne	.L28
 267:main.c        ****                     CapSense_CSDScanExt();
 566              		.loc 1 267 0
 567 01fe 0520     		movs	r0, #5
 568 0200 FFF7FEFF 		bl	CapSense_CSDSetupWidgetExt
 569              	.LVL36:
 268:main.c        ****                     while(CapSense_IsBusy());
 570              		.loc 1 268 0
 571 0204 FFF7FEFF 		bl	CapSense_CSDScanExt
 572              	.LVL37:
 573              	.L29:
 269:main.c        ****                     CapSense_CSDSetupWidgetExt(CapSense_BUTTON6_WDGT_ID, CapSense_BUTTON6_SNS0_ID);
 574              		.loc 1 269 0 discriminator 1
ARM GAS  C:\Users\Qinh\AppData\Local\Temp\ccYrTOvs.s 			page 25


 575 0208 FFF7FEFF 		bl	CapSense_IsBusy
 576              	.LVL38:
 577 020c 011E     		subs	r1, r0, #0
 578 020e FBD1     		bne	.L29
 270:main.c        ****                     CapSense_CSDScanExt();
 579              		.loc 1 270 0
 580 0210 0620     		movs	r0, #6
 581 0212 FFF7FEFF 		bl	CapSense_CSDSetupWidgetExt
 582              	.LVL39:
 271:main.c        ****                     while(CapSense_IsBusy());
 583              		.loc 1 271 0
 584 0216 FFF7FEFF 		bl	CapSense_CSDScanExt
 585              	.LVL40:
 586              	.L30:
 272:main.c        ****                     CapSense_CSDSetupWidgetExt(CapSense_BUTTON7_WDGT_ID, CapSense_BUTTON7_SNS0_ID);
 587              		.loc 1 272 0 discriminator 1
 588 021a FFF7FEFF 		bl	CapSense_IsBusy
 589              	.LVL41:
 590 021e 011E     		subs	r1, r0, #0
 591 0220 FBD1     		bne	.L30
 273:main.c        ****                     CapSense_CSDScanExt();
 592              		.loc 1 273 0
 593 0222 0720     		movs	r0, #7
 594 0224 FFF7FEFF 		bl	CapSense_CSDSetupWidgetExt
 595              	.LVL42:
 274:main.c        ****                     while(CapSense_IsBusy());
 596              		.loc 1 274 0
 597 0228 FFF7FEFF 		bl	CapSense_CSDScanExt
 598              	.LVL43:
 599              	.L31:
 275:main.c        ****                     CapSense_CSDSetupWidgetExt(CapSense_BUTTON8_WDGT_ID, CapSense_BUTTON8_SNS0_ID);
 600              		.loc 1 275 0 discriminator 1
 601 022c FFF7FEFF 		bl	CapSense_IsBusy
 602              	.LVL44:
 603 0230 011E     		subs	r1, r0, #0
 604 0232 FBD1     		bne	.L31
 276:main.c        ****                     CapSense_CSDScanExt();
 605              		.loc 1 276 0
 606 0234 0820     		movs	r0, #8
 607 0236 FFF7FEFF 		bl	CapSense_CSDSetupWidgetExt
 608              	.LVL45:
 277:main.c        ****                     while(CapSense_IsBusy());
 609              		.loc 1 277 0
 610 023a FFF7FEFF 		bl	CapSense_CSDScanExt
 611              	.LVL46:
 612              	.L32:
 278:main.c        ****                     CapSense_CSDSetupWidgetExt(CapSense_BUTTON9_WDGT_ID, CapSense_BUTTON9_SNS0_ID);
 613              		.loc 1 278 0 discriminator 1
 614 023e FFF7FEFF 		bl	CapSense_IsBusy
 615              	.LVL47:
 616 0242 011E     		subs	r1, r0, #0
 617 0244 FBD1     		bne	.L32
 279:main.c        ****                     CapSense_CSDScanExt();
 618              		.loc 1 279 0
 619 0246 0920     		movs	r0, #9
 620 0248 FFF7FEFF 		bl	CapSense_CSDSetupWidgetExt
 621              	.LVL48:
ARM GAS  C:\Users\Qinh\AppData\Local\Temp\ccYrTOvs.s 			page 26


 280:main.c        ****                     while(CapSense_IsBusy());
 622              		.loc 1 280 0
 623 024c FFF7FEFF 		bl	CapSense_CSDScanExt
 624              	.LVL49:
 625              	.L33:
 281:main.c        ****                     CapSense_CSDSetupWidgetExt(CapSense_BUTTON10_WDGT_ID, CapSense_BUTTON10_SNS0_ID
 626              		.loc 1 281 0 discriminator 1
 627 0250 FFF7FEFF 		bl	CapSense_IsBusy
 628              	.LVL50:
 629 0254 011E     		subs	r1, r0, #0
 630 0256 FBD1     		bne	.L33
 282:main.c        ****                     CapSense_CSDScanExt();
 631              		.loc 1 282 0
 632 0258 0A20     		movs	r0, #10
 633 025a FFF7FEFF 		bl	CapSense_CSDSetupWidgetExt
 634              	.LVL51:
 283:main.c        ****                     while(CapSense_IsBusy());
 635              		.loc 1 283 0
 636 025e FFF7FEFF 		bl	CapSense_CSDScanExt
 637              	.LVL52:
 638              	.L34:
 284:main.c        ****                     CapSense_CSDSetupWidgetExt(CapSense_BUTTON11_WDGT_ID, CapSense_BUTTON11_SNS0_ID
 639              		.loc 1 284 0 discriminator 1
 640 0262 FFF7FEFF 		bl	CapSense_IsBusy
 641              	.LVL53:
 642 0266 011E     		subs	r1, r0, #0
 643 0268 FBD1     		bne	.L34
 285:main.c        ****                     CapSense_CSDScanExt();
 644              		.loc 1 285 0
 645 026a 0B20     		movs	r0, #11
 646 026c FFF7FEFF 		bl	CapSense_CSDSetupWidgetExt
 647              	.LVL54:
 286:main.c        ****                     while(CapSense_IsBusy());
 648              		.loc 1 286 0
 649 0270 FFF7FEFF 		bl	CapSense_CSDScanExt
 650              	.LVL55:
 651              	.L35:
 287:main.c        ****                     CapSense_CSDSetupWidgetExt(CapSense_BUTTON12_WDGT_ID, CapSense_BUTTON12_SNS0_ID
 652              		.loc 1 287 0 discriminator 1
 653 0274 FFF7FEFF 		bl	CapSense_IsBusy
 654              	.LVL56:
 655 0278 011E     		subs	r1, r0, #0
 656 027a FBD1     		bne	.L35
 288:main.c        ****                     CapSense_CSDScanExt();
 657              		.loc 1 288 0
 658 027c 0C20     		movs	r0, #12
 659 027e FFF7FEFF 		bl	CapSense_CSDSetupWidgetExt
 660              	.LVL57:
 289:main.c        ****                     while(CapSense_IsBusy());
 661              		.loc 1 289 0
 662 0282 FFF7FEFF 		bl	CapSense_CSDScanExt
 663              	.LVL58:
 664              	.L36:
 290:main.c        ****                     CapSense_CSDSetupWidgetExt(CapSense_BUTTON13_WDGT_ID, CapSense_BUTTON13_SNS0_ID
 665              		.loc 1 290 0 discriminator 1
 666 0286 FFF7FEFF 		bl	CapSense_IsBusy
 667              	.LVL59:
ARM GAS  C:\Users\Qinh\AppData\Local\Temp\ccYrTOvs.s 			page 27


 668 028a 011E     		subs	r1, r0, #0
 669 028c FBD1     		bne	.L36
 291:main.c        ****                     CapSense_CSDScanExt();
 670              		.loc 1 291 0
 671 028e 0D20     		movs	r0, #13
 672 0290 FFF7FEFF 		bl	CapSense_CSDSetupWidgetExt
 673              	.LVL60:
 292:main.c        ****                     while(CapSense_IsBusy());
 674              		.loc 1 292 0
 675 0294 FFF7FEFF 		bl	CapSense_CSDScanExt
 676              	.LVL61:
 677              	.L37:
 293:main.c        ****                     CapSense_CSDSetupWidgetExt(CapSense_BUTTON14_WDGT_ID, CapSense_BUTTON14_SNS0_ID
 678              		.loc 1 293 0 discriminator 1
 679 0298 FFF7FEFF 		bl	CapSense_IsBusy
 680              	.LVL62:
 681 029c 011E     		subs	r1, r0, #0
 682 029e FBD1     		bne	.L37
 294:main.c        ****                     CapSense_CSDScanExt();
 683              		.loc 1 294 0
 684 02a0 0E20     		movs	r0, #14
 685 02a2 FFF7FEFF 		bl	CapSense_CSDSetupWidgetExt
 686              	.LVL63:
 295:main.c        ****                     while(CapSense_IsBusy());
 687              		.loc 1 295 0
 688 02a6 FFF7FEFF 		bl	CapSense_CSDScanExt
 689              	.LVL64:
 690              	.L38:
 296:main.c        ****                     CapSense_CSDSetupWidgetExt(CapSense_BUTTON15_WDGT_ID, CapSense_BUTTON15_SNS0_ID
 691              		.loc 1 296 0 discriminator 1
 692 02aa FFF7FEFF 		bl	CapSense_IsBusy
 693              	.LVL65:
 694 02ae 011E     		subs	r1, r0, #0
 695 02b0 FBD1     		bne	.L38
 297:main.c        ****                     CapSense_CSDScanExt();
 696              		.loc 1 297 0
 697 02b2 0F20     		movs	r0, #15
 698 02b4 FFF7FEFF 		bl	CapSense_CSDSetupWidgetExt
 699              	.LVL66:
 298:main.c        ****                     while(CapSense_IsBusy());
 700              		.loc 1 298 0
 701 02b8 FFF7FEFF 		bl	CapSense_CSDScanExt
 702              	.LVL67:
 703              	.L39:
 299:main.c        ****                     CapSense_CSDSetupWidgetExt(CapSense_BUTTON16_WDGT_ID, CapSense_BUTTON16_SNS0_ID
 704              		.loc 1 299 0 discriminator 1
 705 02bc FFF7FEFF 		bl	CapSense_IsBusy
 706              	.LVL68:
 707 02c0 011E     		subs	r1, r0, #0
 708 02c2 FBD1     		bne	.L39
 300:main.c        ****                     CapSense_CSDScanExt();
 709              		.loc 1 300 0
 710 02c4 1020     		movs	r0, #16
 711 02c6 FFF7FEFF 		bl	CapSense_CSDSetupWidgetExt
 712              	.LVL69:
 301:main.c        ****                     while(CapSense_IsBusy());
 713              		.loc 1 301 0
ARM GAS  C:\Users\Qinh\AppData\Local\Temp\ccYrTOvs.s 			page 28


 714 02ca FFF7FEFF 		bl	CapSense_CSDScanExt
 715              	.LVL70:
 716              	.L40:
 302:main.c        ****                     CapSense_CSDSetupWidgetExt(CapSense_BUTTON17_WDGT_ID, CapSense_BUTTON17_SNS0_ID
 717              		.loc 1 302 0 discriminator 1
 718 02ce FFF7FEFF 		bl	CapSense_IsBusy
 719              	.LVL71:
 720 02d2 011E     		subs	r1, r0, #0
 721 02d4 FBD1     		bne	.L40
 303:main.c        ****                     CapSense_CSDScanExt();
 722              		.loc 1 303 0
 723 02d6 1120     		movs	r0, #17
 724 02d8 FFF7FEFF 		bl	CapSense_CSDSetupWidgetExt
 725              	.LVL72:
 304:main.c        ****                     while(CapSense_IsBusy());
 726              		.loc 1 304 0
 727 02dc FFF7FEFF 		bl	CapSense_CSDScanExt
 728              	.LVL73:
 729              	.L41:
 305:main.c        ****                     CapSense_CSDSetupWidgetExt(CapSense_BUTTON18_WDGT_ID, CapSense_BUTTON18_SNS0_ID
 730              		.loc 1 305 0 discriminator 1
 731 02e0 FFF7FEFF 		bl	CapSense_IsBusy
 732              	.LVL74:
 733 02e4 011E     		subs	r1, r0, #0
 734 02e6 FBD1     		bne	.L41
 306:main.c        ****                     CapSense_CSDScanExt();
 735              		.loc 1 306 0
 736 02e8 1220     		movs	r0, #18
 737 02ea FFF7FEFF 		bl	CapSense_CSDSetupWidgetExt
 738              	.LVL75:
 307:main.c        ****                     while(CapSense_IsBusy());
 739              		.loc 1 307 0
 740 02ee FFF7FEFF 		bl	CapSense_CSDScanExt
 741              	.LVL76:
 742              	.L42:
 308:main.c        ****                     CapSense_CSDSetupWidgetExt(CapSense_BUTTON19_WDGT_ID, CapSense_BUTTON19_SNS0_ID
 743              		.loc 1 308 0 discriminator 1
 744 02f2 FFF7FEFF 		bl	CapSense_IsBusy
 745              	.LVL77:
 746 02f6 011E     		subs	r1, r0, #0
 747 02f8 FBD1     		bne	.L42
 309:main.c        ****                     CapSense_CSDScanExt();
 748              		.loc 1 309 0
 749 02fa 1320     		movs	r0, #19
 750 02fc FFF7FEFF 		bl	CapSense_CSDSetupWidgetExt
 751              	.LVL78:
 310:main.c        ****                     while(CapSense_IsBusy());
 752              		.loc 1 310 0
 753 0300 FFF7FEFF 		bl	CapSense_CSDScanExt
 754              	.LVL79:
 755              	.L43:
 311:main.c        ****                     CapSense_CSDSetupWidgetExt(CapSense_BUTTON20_WDGT_ID, CapSense_BUTTON20_SNS0_ID
 756              		.loc 1 311 0 discriminator 1
 757 0304 FFF7FEFF 		bl	CapSense_IsBusy
 758              	.LVL80:
 759 0308 011E     		subs	r1, r0, #0
 760 030a FBD1     		bne	.L43
ARM GAS  C:\Users\Qinh\AppData\Local\Temp\ccYrTOvs.s 			page 29


 312:main.c        ****                     CapSense_CSDScanExt();
 761              		.loc 1 312 0
 762 030c 1420     		movs	r0, #20
 763 030e FFF7FEFF 		bl	CapSense_CSDSetupWidgetExt
 764              	.LVL81:
 313:main.c        ****                     while(CapSense_IsBusy());
 765              		.loc 1 313 0
 766 0312 FFF7FEFF 		bl	CapSense_CSDScanExt
 767              	.LVL82:
 768              	.L44:
 314:main.c        ****                     CapSense_CSDSetupWidgetExt(CapSense_BUTTON21_WDGT_ID, CapSense_BUTTON21_SNS0_ID
 769              		.loc 1 314 0 discriminator 1
 770 0316 FFF7FEFF 		bl	CapSense_IsBusy
 771              	.LVL83:
 772 031a 011E     		subs	r1, r0, #0
 773 031c FBD1     		bne	.L44
 315:main.c        ****                     CapSense_CSDScanExt();
 774              		.loc 1 315 0
 775 031e 1520     		movs	r0, #21
 776 0320 FFF7FEFF 		bl	CapSense_CSDSetupWidgetExt
 777              	.LVL84:
 316:main.c        ****                     while(CapSense_IsBusy());
 778              		.loc 1 316 0
 779 0324 FFF7FEFF 		bl	CapSense_CSDScanExt
 780              	.LVL85:
 781              	.L45:
 317:main.c        ****                     CapSense_CSDSetupWidgetExt(CapSense_BUTTON22_WDGT_ID, CapSense_BUTTON22_SNS0_ID
 782              		.loc 1 317 0 discriminator 1
 783 0328 FFF7FEFF 		bl	CapSense_IsBusy
 784              	.LVL86:
 785 032c 011E     		subs	r1, r0, #0
 786 032e FBD1     		bne	.L45
 318:main.c        ****                     CapSense_CSDScanExt();
 787              		.loc 1 318 0
 788 0330 1620     		movs	r0, #22
 789 0332 FFF7FEFF 		bl	CapSense_CSDSetupWidgetExt
 790              	.LVL87:
 319:main.c        ****                     while(CapSense_IsBusy());
 791              		.loc 1 319 0
 792 0336 FFF7FEFF 		bl	CapSense_CSDScanExt
 793              	.LVL88:
 794              	.L46:
 320:main.c        ****                     CapSense_CSDSetupWidgetExt(CapSense_BUTTON23_WDGT_ID, CapSense_BUTTON23_SNS0_ID
 795              		.loc 1 320 0 discriminator 1
 796 033a FFF7FEFF 		bl	CapSense_IsBusy
 797              	.LVL89:
 798 033e 011E     		subs	r1, r0, #0
 799 0340 FBD1     		bne	.L46
 321:main.c        ****                     CapSense_CSDScanExt();
 800              		.loc 1 321 0
 801 0342 1720     		movs	r0, #23
 802 0344 FFF7FEFF 		bl	CapSense_CSDSetupWidgetExt
 803              	.LVL90:
 322:main.c        ****                     while(CapSense_IsBusy());
 804              		.loc 1 322 0
 805 0348 FFF7FEFF 		bl	CapSense_CSDScanExt
 806              	.LVL91:
ARM GAS  C:\Users\Qinh\AppData\Local\Temp\ccYrTOvs.s 			page 30


 807              	.L47:
 323:main.c        ****                     CapSense_CSDSetupWidgetExt(CapSense_BUTTON24_WDGT_ID, CapSense_BUTTON24_SNS0_ID
 808              		.loc 1 323 0 discriminator 1
 809 034c FFF7FEFF 		bl	CapSense_IsBusy
 810              	.LVL92:
 811 0350 011E     		subs	r1, r0, #0
 812 0352 FBD1     		bne	.L47
 324:main.c        ****                     CapSense_CSDScanExt();
 813              		.loc 1 324 0
 814 0354 1820     		movs	r0, #24
 815 0356 FFF7FEFF 		bl	CapSense_CSDSetupWidgetExt
 816              	.LVL93:
 325:main.c        ****                     while(CapSense_IsBusy());
 817              		.loc 1 325 0
 818 035a FFF7FEFF 		bl	CapSense_CSDScanExt
 819              	.LVL94:
 820              	.L48:
 326:main.c        ****                     CapSense_CSDSetupWidgetExt(CapSense_BUTTON25_WDGT_ID, CapSense_BUTTON25_SNS0_ID
 821              		.loc 1 326 0 discriminator 1
 822 035e FFF7FEFF 		bl	CapSense_IsBusy
 823              	.LVL95:
 824 0362 011E     		subs	r1, r0, #0
 825 0364 FBD1     		bne	.L48
 327:main.c        ****                     CapSense_CSDScanExt();
 826              		.loc 1 327 0
 827 0366 1920     		movs	r0, #25
 828 0368 FFF7FEFF 		bl	CapSense_CSDSetupWidgetExt
 829              	.LVL96:
 328:main.c        ****                     while(CapSense_IsBusy());
 830              		.loc 1 328 0
 831 036c FFF7FEFF 		bl	CapSense_CSDScanExt
 832              	.LVL97:
 833              	.L49:
 329:main.c        ****                     CapSense_CSDSetupWidgetExt(CapSense_BUTTON26_WDGT_ID, CapSense_BUTTON26_SNS0_ID
 834              		.loc 1 329 0 discriminator 1
 835 0370 FFF7FEFF 		bl	CapSense_IsBusy
 836              	.LVL98:
 837 0374 011E     		subs	r1, r0, #0
 838 0376 FBD1     		bne	.L49
 330:main.c        ****                     CapSense_CSDScanExt();
 839              		.loc 1 330 0
 840 0378 1A20     		movs	r0, #26
 841 037a FFF7FEFF 		bl	CapSense_CSDSetupWidgetExt
 842              	.LVL99:
 331:main.c        ****                     while(CapSense_IsBusy());
 843              		.loc 1 331 0
 844 037e FFF7FEFF 		bl	CapSense_CSDScanExt
 845              	.LVL100:
 846              	.L50:
 332:main.c        ****                     CapSense_CSDSetupWidgetExt(CapSense_BUTTON27_WDGT_ID, CapSense_BUTTON27_SNS0_ID
 847              		.loc 1 332 0 discriminator 1
 848 0382 FFF7FEFF 		bl	CapSense_IsBusy
 849              	.LVL101:
 850 0386 011E     		subs	r1, r0, #0
 851 0388 FBD1     		bne	.L50
 333:main.c        ****                     CapSense_CSDScanExt();
 852              		.loc 1 333 0
ARM GAS  C:\Users\Qinh\AppData\Local\Temp\ccYrTOvs.s 			page 31


 853 038a 1B20     		movs	r0, #27
 854 038c FFF7FEFF 		bl	CapSense_CSDSetupWidgetExt
 855              	.LVL102:
 334:main.c        ****                     while(CapSense_IsBusy());
 856              		.loc 1 334 0
 857 0390 FFF7FEFF 		bl	CapSense_CSDScanExt
 858              	.LVL103:
 859              	.L51:
 335:main.c        ****                     CapSense_CSDSetupWidgetExt(CapSense_BUTTON28_WDGT_ID, CapSense_BUTTON28_SNS0_ID
 860              		.loc 1 335 0 discriminator 1
 861 0394 FFF7FEFF 		bl	CapSense_IsBusy
 862              	.LVL104:
 863 0398 011E     		subs	r1, r0, #0
 864 039a FBD1     		bne	.L51
 336:main.c        ****                     CapSense_CSDScanExt();
 865              		.loc 1 336 0
 866 039c 1C20     		movs	r0, #28
 867 039e FFF7FEFF 		bl	CapSense_CSDSetupWidgetExt
 868              	.LVL105:
 337:main.c        ****                     while(CapSense_IsBusy());
 869              		.loc 1 337 0
 870 03a2 FFF7FEFF 		bl	CapSense_CSDScanExt
 871              	.LVL106:
 872              	.L52:
 338:main.c        ****                     CapSense_CSDSetupWidgetExt(CapSense_BUTTON29_WDGT_ID, CapSense_BUTTON29_SNS0_ID
 873              		.loc 1 338 0 discriminator 1
 874 03a6 FFF7FEFF 		bl	CapSense_IsBusy
 875              	.LVL107:
 876 03aa 011E     		subs	r1, r0, #0
 877 03ac FBD1     		bne	.L52
 339:main.c        ****                     CapSense_CSDScanExt();
 878              		.loc 1 339 0
 879 03ae 1D20     		movs	r0, #29
 880 03b0 FFF7FEFF 		bl	CapSense_CSDSetupWidgetExt
 881              	.LVL108:
 340:main.c        ****                     while(CapSense_IsBusy());
 882              		.loc 1 340 0
 883 03b4 FFF7FEFF 		bl	CapSense_CSDScanExt
 884              	.LVL109:
 885              	.L53:
 341:main.c        ****                     CapSense_CSDSetupWidgetExt(CapSense_BUTTON30_WDGT_ID, CapSense_BUTTON30_SNS0_ID
 886              		.loc 1 341 0 discriminator 1
 887 03b8 FFF7FEFF 		bl	CapSense_IsBusy
 888              	.LVL110:
 889 03bc 011E     		subs	r1, r0, #0
 890 03be FBD1     		bne	.L53
 342:main.c        ****                     CapSense_CSDScanExt();
 891              		.loc 1 342 0
 892 03c0 1E20     		movs	r0, #30
 893 03c2 FFF7FEFF 		bl	CapSense_CSDSetupWidgetExt
 894              	.LVL111:
 343:main.c        ****                     while(CapSense_IsBusy());
 895              		.loc 1 343 0
 896 03c6 FFF7FEFF 		bl	CapSense_CSDScanExt
 897              	.LVL112:
 898              	.L54:
 344:main.c        ****                     CapSense_CSDSetupWidgetExt(CapSense_BUTTON31_WDGT_ID, CapSense_BUTTON31_SNS0_ID
ARM GAS  C:\Users\Qinh\AppData\Local\Temp\ccYrTOvs.s 			page 32


 899              		.loc 1 344 0 discriminator 1
 900 03ca FFF7FEFF 		bl	CapSense_IsBusy
 901              	.LVL113:
 902 03ce 011E     		subs	r1, r0, #0
 903 03d0 FBD1     		bne	.L54
 345:main.c        ****                     CapSense_CSDScanExt();
 904              		.loc 1 345 0
 905 03d2 1F20     		movs	r0, #31
 906 03d4 FFF7FEFF 		bl	CapSense_CSDSetupWidgetExt
 907              	.LVL114:
 346:main.c        ****                     while(CapSense_IsBusy());
 908              		.loc 1 346 0
 909 03d8 FFF7FEFF 		bl	CapSense_CSDScanExt
 910              	.LVL115:
 911              	.L55:
 347:main.c        ****                     CapSense_CSDSetupWidgetExt(CapSense_BUTTON32_WDGT_ID, CapSense_BUTTON31_SNS0_ID
 912              		.loc 1 347 0 discriminator 1
 913 03dc FFF7FEFF 		bl	CapSense_IsBusy
 914              	.LVL116:
 915 03e0 011E     		subs	r1, r0, #0
 916 03e2 FBD1     		bne	.L55
 348:main.c        ****                     CapSense_CSDScanExt();
 917              		.loc 1 348 0
 918 03e4 2020     		movs	r0, #32
 919 03e6 FFF7FEFF 		bl	CapSense_CSDSetupWidgetExt
 920              	.LVL117:
 349:main.c        ****                     while(CapSense_IsBusy());
 921              		.loc 1 349 0
 922 03ea FFF7FEFF 		bl	CapSense_CSDScanExt
 923              	.LVL118:
 924              	.L56:
 350:main.c        ****                     CapSense_CSDSetupWidgetExt(CapSense_BUTTON33_WDGT_ID, CapSense_BUTTON31_SNS0_ID
 925              		.loc 1 350 0 discriminator 1
 926 03ee FFF7FEFF 		bl	CapSense_IsBusy
 927              	.LVL119:
 928 03f2 011E     		subs	r1, r0, #0
 929 03f4 FBD1     		bne	.L56
 351:main.c        ****                     CapSense_CSDScanExt();
 930              		.loc 1 351 0
 931 03f6 2120     		movs	r0, #33
 932 03f8 FFF7FEFF 		bl	CapSense_CSDSetupWidgetExt
 933              	.LVL120:
 356:main.c        ****                 }
 934              		.loc 1 356 0
 935 03fc 0225     		movs	r5, #2
 352:main.c        **** 
 936              		.loc 1 352 0
 937 03fe FFF7FEFF 		bl	CapSense_CSDScanExt
 938              	.LVL121:
 939 0402 A8E6     		b	.L16
 940              	.LVL122:
 941              	.L20:
 367:main.c        ****                 
 942              		.loc 1 367 0
 943 0404 FFF7FEFF 		bl	CyEnterCriticalSection
 944              	.LVL123:
 945 0408 8D4F     		ldr	r7, .L106
ARM GAS  C:\Users\Qinh\AppData\Local\Temp\ccYrTOvs.s 			page 33


 946 040a 3860     		str	r0, [r7]
 370:main.c        ****                 {
 947              		.loc 1 370 0
 948 040c FFF7FEFF 		bl	CapSense_IsBusy
 949              	.LVL124:
 950 0410 0028     		cmp	r0, #0
 951 0412 02D0     		beq	.L60
 373:main.c        ****                 }
 952              		.loc 1 373 0
 953 0414 FFF7FEFF 		bl	CySysPmSleep
 954              	.LVL125:
 955 0418 00E0     		b	.L57
 956              	.L60:
 378:main.c        ****                 }
 957              		.loc 1 378 0
 958 041a 0325     		movs	r5, #3
 959              	.LVL126:
 960              	.L57:
 381:main.c        ****                 break;
 961              		.loc 1 381 0
 962 041c 3868     		ldr	r0, [r7]
 963 041e C0B2     		uxtb	r0, r0
 964 0420 FFF7FEFF 		bl	CyExitCriticalSection
 965              	.LVL127:
 382:main.c        ****             
 966              		.loc 1 382 0
 967 0424 97E6     		b	.L16
 968              	.L21:
 969              	.LVL128:
 391:main.c        ****             CapSense_ProcessWidget(CapSense_BUTTON1_WDGT_ID);
 970              		.loc 1 391 0
 971 0426 0020     		movs	r0, #0
 972 0428 FFF7FEFF 		bl	CapSense_ProcessWidget
 973              	.LVL129:
 392:main.c        ****             CapSense_ProcessWidget(CapSense_BUTTON2_WDGT_ID);
 974              		.loc 1 392 0
 975 042c 0120     		movs	r0, #1
 976 042e FFF7FEFF 		bl	CapSense_ProcessWidget
 977              	.LVL130:
 393:main.c        ****             CapSense_ProcessWidget(CapSense_BUTTON3_WDGT_ID);
 978              		.loc 1 393 0
 979 0432 0220     		movs	r0, #2
 980 0434 FFF7FEFF 		bl	CapSense_ProcessWidget
 981              	.LVL131:
 394:main.c        ****             CapSense_ProcessWidget(CapSense_BUTTON4_WDGT_ID);
 982              		.loc 1 394 0
 983 0438 0320     		movs	r0, #3
 984 043a FFF7FEFF 		bl	CapSense_ProcessWidget
 985              	.LVL132:
 395:main.c        ****             CapSense_ProcessWidget(CapSense_BUTTON5_WDGT_ID);
 986              		.loc 1 395 0
 987 043e 0420     		movs	r0, #4
 988 0440 FFF7FEFF 		bl	CapSense_ProcessWidget
 989              	.LVL133:
 396:main.c        ****             CapSense_ProcessWidget(CapSense_BUTTON6_WDGT_ID);
 990              		.loc 1 396 0
 991 0444 0520     		movs	r0, #5
ARM GAS  C:\Users\Qinh\AppData\Local\Temp\ccYrTOvs.s 			page 34


 992 0446 FFF7FEFF 		bl	CapSense_ProcessWidget
 993              	.LVL134:
 397:main.c        ****             CapSense_ProcessWidget(CapSense_BUTTON7_WDGT_ID);
 994              		.loc 1 397 0
 995 044a 0620     		movs	r0, #6
 996 044c FFF7FEFF 		bl	CapSense_ProcessWidget
 997              	.LVL135:
 398:main.c        ****             CapSense_ProcessWidget(CapSense_BUTTON8_WDGT_ID);
 998              		.loc 1 398 0
 999 0450 0720     		movs	r0, #7
 1000 0452 FFF7FEFF 		bl	CapSense_ProcessWidget
 1001              	.LVL136:
 399:main.c        ****             CapSense_ProcessWidget(CapSense_BUTTON9_WDGT_ID);
 1002              		.loc 1 399 0
 1003 0456 0820     		movs	r0, #8
 1004 0458 FFF7FEFF 		bl	CapSense_ProcessWidget
 1005              	.LVL137:
 400:main.c        ****             CapSense_ProcessWidget(CapSense_BUTTON10_WDGT_ID);
 1006              		.loc 1 400 0
 1007 045c 0920     		movs	r0, #9
 1008 045e FFF7FEFF 		bl	CapSense_ProcessWidget
 1009              	.LVL138:
 401:main.c        ****             CapSense_ProcessWidget(CapSense_BUTTON11_WDGT_ID);
 1010              		.loc 1 401 0
 1011 0462 0A20     		movs	r0, #10
 1012 0464 FFF7FEFF 		bl	CapSense_ProcessWidget
 1013              	.LVL139:
 402:main.c        ****             CapSense_ProcessWidget(CapSense_BUTTON12_WDGT_ID);
 1014              		.loc 1 402 0
 1015 0468 0B20     		movs	r0, #11
 1016 046a FFF7FEFF 		bl	CapSense_ProcessWidget
 1017              	.LVL140:
 403:main.c        ****             CapSense_ProcessWidget(CapSense_BUTTON13_WDGT_ID);
 1018              		.loc 1 403 0
 1019 046e 0C20     		movs	r0, #12
 1020 0470 FFF7FEFF 		bl	CapSense_ProcessWidget
 1021              	.LVL141:
 404:main.c        ****             CapSense_ProcessWidget(CapSense_BUTTON14_WDGT_ID);
 1022              		.loc 1 404 0
 1023 0474 0D20     		movs	r0, #13
 1024 0476 FFF7FEFF 		bl	CapSense_ProcessWidget
 1025              	.LVL142:
 405:main.c        ****             CapSense_ProcessWidget(CapSense_BUTTON15_WDGT_ID);
 1026              		.loc 1 405 0
 1027 047a 0E20     		movs	r0, #14
 1028 047c FFF7FEFF 		bl	CapSense_ProcessWidget
 1029              	.LVL143:
 406:main.c        ****             CapSense_ProcessWidget(CapSense_BUTTON16_WDGT_ID);
 1030              		.loc 1 406 0
 1031 0480 0F20     		movs	r0, #15
 1032 0482 FFF7FEFF 		bl	CapSense_ProcessWidget
 1033              	.LVL144:
 407:main.c        ****             CapSense_ProcessWidget(CapSense_BUTTON17_WDGT_ID);
 1034              		.loc 1 407 0
 1035 0486 1020     		movs	r0, #16
 1036 0488 FFF7FEFF 		bl	CapSense_ProcessWidget
 1037              	.LVL145:
ARM GAS  C:\Users\Qinh\AppData\Local\Temp\ccYrTOvs.s 			page 35


 408:main.c        ****             CapSense_ProcessWidget(CapSense_BUTTON18_WDGT_ID);
 1038              		.loc 1 408 0
 1039 048c 1120     		movs	r0, #17
 1040 048e FFF7FEFF 		bl	CapSense_ProcessWidget
 1041              	.LVL146:
 409:main.c        ****             CapSense_ProcessWidget(CapSense_BUTTON19_WDGT_ID);
 1042              		.loc 1 409 0
 1043 0492 1220     		movs	r0, #18
 1044 0494 FFF7FEFF 		bl	CapSense_ProcessWidget
 1045              	.LVL147:
 410:main.c        ****             CapSense_ProcessWidget(CapSense_BUTTON20_WDGT_ID);
 1046              		.loc 1 410 0
 1047 0498 1320     		movs	r0, #19
 1048 049a FFF7FEFF 		bl	CapSense_ProcessWidget
 1049              	.LVL148:
 411:main.c        ****             CapSense_ProcessWidget(CapSense_BUTTON21_WDGT_ID);
 1050              		.loc 1 411 0
 1051 049e 1420     		movs	r0, #20
 1052 04a0 FFF7FEFF 		bl	CapSense_ProcessWidget
 1053              	.LVL149:
 412:main.c        ****             CapSense_ProcessWidget(CapSense_BUTTON22_WDGT_ID);
 1054              		.loc 1 412 0
 1055 04a4 1520     		movs	r0, #21
 1056 04a6 FFF7FEFF 		bl	CapSense_ProcessWidget
 1057              	.LVL150:
 413:main.c        ****             CapSense_ProcessWidget(CapSense_BUTTON23_WDGT_ID);
 1058              		.loc 1 413 0
 1059 04aa 1620     		movs	r0, #22
 1060 04ac FFF7FEFF 		bl	CapSense_ProcessWidget
 1061              	.LVL151:
 414:main.c        ****             CapSense_ProcessWidget(CapSense_BUTTON24_WDGT_ID);
 1062              		.loc 1 414 0
 1063 04b0 1720     		movs	r0, #23
 1064 04b2 FFF7FEFF 		bl	CapSense_ProcessWidget
 1065              	.LVL152:
 415:main.c        ****             CapSense_ProcessWidget(CapSense_BUTTON25_WDGT_ID);
 1066              		.loc 1 415 0
 1067 04b6 1820     		movs	r0, #24
 1068 04b8 FFF7FEFF 		bl	CapSense_ProcessWidget
 1069              	.LVL153:
 416:main.c        ****             CapSense_ProcessWidget(CapSense_BUTTON26_WDGT_ID);
 1070              		.loc 1 416 0
 1071 04bc 1920     		movs	r0, #25
 1072 04be FFF7FEFF 		bl	CapSense_ProcessWidget
 1073              	.LVL154:
 417:main.c        ****             CapSense_ProcessWidget(CapSense_BUTTON27_WDGT_ID);
 1074              		.loc 1 417 0
 1075 04c2 1A20     		movs	r0, #26
 1076 04c4 FFF7FEFF 		bl	CapSense_ProcessWidget
 1077              	.LVL155:
 418:main.c        ****             CapSense_ProcessWidget(CapSense_BUTTON28_WDGT_ID);
 1078              		.loc 1 418 0
 1079 04c8 1B20     		movs	r0, #27
 1080 04ca FFF7FEFF 		bl	CapSense_ProcessWidget
 1081              	.LVL156:
 419:main.c        ****             CapSense_ProcessWidget(CapSense_BUTTON29_WDGT_ID);
 1082              		.loc 1 419 0
ARM GAS  C:\Users\Qinh\AppData\Local\Temp\ccYrTOvs.s 			page 36


 1083 04ce 1C20     		movs	r0, #28
 1084 04d0 FFF7FEFF 		bl	CapSense_ProcessWidget
 1085              	.LVL157:
 420:main.c        ****             CapSense_ProcessWidget(CapSense_BUTTON30_WDGT_ID);
 1086              		.loc 1 420 0
 1087 04d4 1D20     		movs	r0, #29
 1088 04d6 FFF7FEFF 		bl	CapSense_ProcessWidget
 1089              	.LVL158:
 421:main.c        ****             CapSense_ProcessWidget(CapSense_BUTTON31_WDGT_ID);
 1090              		.loc 1 421 0
 1091 04da 1E20     		movs	r0, #30
 1092 04dc FFF7FEFF 		bl	CapSense_ProcessWidget
 1093              	.LVL159:
 422:main.c        ****             CapSense_ProcessWidget(CapSense_BUTTON32_WDGT_ID);
 1094              		.loc 1 422 0
 1095 04e0 1F20     		movs	r0, #31
 1096 04e2 FFF7FEFF 		bl	CapSense_ProcessWidget
 1097              	.LVL160:
 423:main.c        ****             CapSense_ProcessWidget(CapSense_BUTTON33_WDGT_ID);
 1098              		.loc 1 423 0
 1099 04e6 2020     		movs	r0, #32
 1100 04e8 FFF7FEFF 		bl	CapSense_ProcessWidget
 1101              	.LVL161:
 424:main.c        ****             Touch.channel_raw[0] = CapSense_BUTTON0_SNS0_RAW0_VALUE;
 1102              		.loc 1 424 0
 1103 04ec 2120     		movs	r0, #33
 1104 04ee FFF7FEFF 		bl	CapSense_ProcessWidget
 1105              	.LVL162:
 425:main.c        ****             Touch.channel_raw[1] = CapSense_BUTTON1_SNS0_RAW0_VALUE;
 1106              		.loc 1 425 0
 1107 04f2 544B     		ldr	r3, .L106+4
 1108 04f4 544D     		ldr	r5, .L106+8
 1109 04f6 E35A     		ldrh	r3, [r4, r3]
 456:main.c        ****             Touch.channel_raw[32] = CapSense_BUTTON32_SNS0_RAW0_VALUE;
 1110              		.loc 1 456 0
 1111 04f8 544A     		ldr	r2, .L106+12
 425:main.c        ****             Touch.channel_raw[1] = CapSense_BUTTON1_SNS0_RAW0_VALUE;
 1112              		.loc 1 425 0
 1113 04fa 6B80     		strh	r3, [r5, #2]
 426:main.c        ****             Touch.channel_raw[2] = CapSense_BUTTON2_SNS0_RAW0_VALUE;
 1114              		.loc 1 426 0
 1115 04fc BE23     		movs	r3, #190
 1116 04fe 9B00     		lsls	r3, r3, #2
 1117 0500 E35A     		ldrh	r3, [r4, r3]
 457:main.c        ****             Touch.channel_raw[33] = CapSense_BUTTON33_SNS0_RAW0_VALUE;
 1118              		.loc 1 457 0
 1119 0502 5349     		ldr	r1, .L106+16
 426:main.c        ****             Touch.channel_raw[2] = CapSense_BUTTON2_SNS0_RAW0_VALUE;
 1120              		.loc 1 426 0
 1121 0504 AB80     		strh	r3, [r5, #4]
 427:main.c        ****             Touch.channel_raw[3] = CapSense_BUTTON3_SNS0_RAW0_VALUE;
 1122              		.loc 1 427 0
 1123 0506 534B     		ldr	r3, .L106+20
 1124 0508 E35A     		ldrh	r3, [r4, r3]
 1125 050a EB80     		strh	r3, [r5, #6]
 428:main.c        ****             Touch.channel_raw[4] = CapSense_BUTTON4_SNS0_RAW0_VALUE;
 1126              		.loc 1 428 0
ARM GAS  C:\Users\Qinh\AppData\Local\Temp\ccYrTOvs.s 			page 37


 1127 050c C323     		movs	r3, #195
 1128 050e 9B00     		lsls	r3, r3, #2
 1129 0510 E35A     		ldrh	r3, [r4, r3]
 1130 0512 2B81     		strh	r3, [r5, #8]
 429:main.c        ****             Touch.channel_raw[5] = CapSense_BUTTON5_SNS0_RAW0_VALUE;
 1131              		.loc 1 429 0
 1132 0514 504B     		ldr	r3, .L106+24
 1133 0516 E35A     		ldrh	r3, [r4, r3]
 1134 0518 6B81     		strh	r3, [r5, #10]
 430:main.c        ****             Touch.channel_raw[6] = CapSense_BUTTON6_SNS0_RAW0_VALUE;
 1135              		.loc 1 430 0
 1136 051a C823     		movs	r3, #200
 1137 051c 9B00     		lsls	r3, r3, #2
 1138 051e E35A     		ldrh	r3, [r4, r3]
 1139 0520 AB81     		strh	r3, [r5, #12]
 431:main.c        ****             Touch.channel_raw[7] = CapSense_BUTTON7_SNS0_RAW0_VALUE;
 1140              		.loc 1 431 0
 1141 0522 4E4B     		ldr	r3, .L106+28
 1142 0524 E35A     		ldrh	r3, [r4, r3]
 1143 0526 EB81     		strh	r3, [r5, #14]
 432:main.c        ****             Touch.channel_raw[8] = CapSense_BUTTON8_SNS0_RAW0_VALUE;
 1144              		.loc 1 432 0
 1145 0528 CD23     		movs	r3, #205
 1146 052a 9B00     		lsls	r3, r3, #2
 1147 052c E35A     		ldrh	r3, [r4, r3]
 1148 052e 2B82     		strh	r3, [r5, #16]
 433:main.c        ****             Touch.channel_raw[9] = CapSense_BUTTON9_SNS0_RAW0_VALUE;
 1149              		.loc 1 433 0
 1150 0530 4B4B     		ldr	r3, .L106+32
 1151 0532 E35A     		ldrh	r3, [r4, r3]
 1152 0534 6B82     		strh	r3, [r5, #18]
 434:main.c        ****             Touch.channel_raw[10] = CapSense_BUTTON10_SNS0_RAW0_VALUE;
 1153              		.loc 1 434 0
 1154 0536 D223     		movs	r3, #210
 1155 0538 9B00     		lsls	r3, r3, #2
 1156 053a E35A     		ldrh	r3, [r4, r3]
 1157 053c AB82     		strh	r3, [r5, #20]
 435:main.c        ****             Touch.channel_raw[11] = CapSense_BUTTON11_SNS0_RAW0_VALUE;
 1158              		.loc 1 435 0
 1159 053e 494B     		ldr	r3, .L106+36
 1160 0540 E35A     		ldrh	r3, [r4, r3]
 1161 0542 EB82     		strh	r3, [r5, #22]
 436:main.c        ****             Touch.channel_raw[12] = CapSense_BUTTON12_SNS0_RAW0_VALUE;
 1162              		.loc 1 436 0
 1163 0544 D723     		movs	r3, #215
 1164 0546 9B00     		lsls	r3, r3, #2
 1165 0548 E35A     		ldrh	r3, [r4, r3]
 1166 054a 2B83     		strh	r3, [r5, #24]
 437:main.c        ****             Touch.channel_raw[13] = CapSense_BUTTON13_SNS0_RAW0_VALUE;
 1167              		.loc 1 437 0
 1168 054c 464B     		ldr	r3, .L106+40
 1169 054e E35A     		ldrh	r3, [r4, r3]
 1170 0550 6B83     		strh	r3, [r5, #26]
 438:main.c        ****             Touch.channel_raw[14] = CapSense_BUTTON14_SNS0_RAW0_VALUE;
 1171              		.loc 1 438 0
 1172 0552 DC23     		movs	r3, #220
 1173 0554 9B00     		lsls	r3, r3, #2
ARM GAS  C:\Users\Qinh\AppData\Local\Temp\ccYrTOvs.s 			page 38


 1174 0556 E35A     		ldrh	r3, [r4, r3]
 1175 0558 AB83     		strh	r3, [r5, #28]
 439:main.c        ****             Touch.channel_raw[15] = CapSense_BUTTON15_SNS0_RAW0_VALUE;
 1176              		.loc 1 439 0
 1177 055a 444B     		ldr	r3, .L106+44
 1178 055c E35A     		ldrh	r3, [r4, r3]
 1179 055e EB83     		strh	r3, [r5, #30]
 440:main.c        ****             Touch.channel_raw[16] = CapSense_BUTTON16_SNS0_RAW0_VALUE;
 1180              		.loc 1 440 0
 1181 0560 E123     		movs	r3, #225
 1182 0562 9B00     		lsls	r3, r3, #2
 1183 0564 E35A     		ldrh	r3, [r4, r3]
 1184 0566 2B84     		strh	r3, [r5, #32]
 441:main.c        ****             Touch.channel_raw[17] = CapSense_BUTTON17_SNS0_RAW0_VALUE;
 1185              		.loc 1 441 0
 1186 0568 414B     		ldr	r3, .L106+48
 1187 056a E35A     		ldrh	r3, [r4, r3]
 1188 056c 6B84     		strh	r3, [r5, #34]
 442:main.c        ****             Touch.channel_raw[18] = CapSense_BUTTON18_SNS0_RAW0_VALUE;
 1189              		.loc 1 442 0
 1190 056e E623     		movs	r3, #230
 1191 0570 9B00     		lsls	r3, r3, #2
 1192 0572 E35A     		ldrh	r3, [r4, r3]
 1193 0574 AB84     		strh	r3, [r5, #36]
 443:main.c        ****             Touch.channel_raw[19] = CapSense_BUTTON19_SNS0_RAW0_VALUE;
 1194              		.loc 1 443 0
 1195 0576 3F4B     		ldr	r3, .L106+52
 1196 0578 E35A     		ldrh	r3, [r4, r3]
 1197 057a EB84     		strh	r3, [r5, #38]
 444:main.c        ****             Touch.channel_raw[20] = CapSense_BUTTON20_SNS0_RAW0_VALUE;
 1198              		.loc 1 444 0
 1199 057c EB23     		movs	r3, #235
 1200 057e 9B00     		lsls	r3, r3, #2
 1201 0580 E35A     		ldrh	r3, [r4, r3]
 1202 0582 2B85     		strh	r3, [r5, #40]
 445:main.c        ****             Touch.channel_raw[21] = CapSense_BUTTON21_SNS0_RAW0_VALUE;
 1203              		.loc 1 445 0
 1204 0584 3C4B     		ldr	r3, .L106+56
 1205 0586 E35A     		ldrh	r3, [r4, r3]
 1206 0588 6B85     		strh	r3, [r5, #42]
 446:main.c        ****             Touch.channel_raw[22] = CapSense_BUTTON22_SNS0_RAW0_VALUE;
 1207              		.loc 1 446 0
 1208 058a F023     		movs	r3, #240
 1209 058c 9B00     		lsls	r3, r3, #2
 1210 058e E35A     		ldrh	r3, [r4, r3]
 1211 0590 AB85     		strh	r3, [r5, #44]
 447:main.c        ****             Touch.channel_raw[23] = CapSense_BUTTON23_SNS0_RAW0_VALUE;
 1212              		.loc 1 447 0
 1213 0592 3A4B     		ldr	r3, .L106+60
 1214 0594 E35A     		ldrh	r3, [r4, r3]
 1215 0596 EB85     		strh	r3, [r5, #46]
 448:main.c        ****             Touch.channel_raw[24] = CapSense_BUTTON24_SNS0_RAW0_VALUE;
 1216              		.loc 1 448 0
 1217 0598 F523     		movs	r3, #245
 1218 059a 9B00     		lsls	r3, r3, #2
 1219 059c E35A     		ldrh	r3, [r4, r3]
 1220 059e 2B86     		strh	r3, [r5, #48]
ARM GAS  C:\Users\Qinh\AppData\Local\Temp\ccYrTOvs.s 			page 39


 449:main.c        ****             Touch.channel_raw[25] = CapSense_BUTTON25_SNS0_RAW0_VALUE;
 1221              		.loc 1 449 0
 1222 05a0 374B     		ldr	r3, .L106+64
 1223 05a2 E35A     		ldrh	r3, [r4, r3]
 1224 05a4 6B86     		strh	r3, [r5, #50]
 450:main.c        ****             Touch.channel_raw[26] = CapSense_BUTTON26_SNS0_RAW0_VALUE;
 1225              		.loc 1 450 0
 1226 05a6 FA23     		movs	r3, #250
 1227 05a8 9B00     		lsls	r3, r3, #2
 1228 05aa E35A     		ldrh	r3, [r4, r3]
 1229 05ac AB86     		strh	r3, [r5, #52]
 451:main.c        ****             Touch.channel_raw[27] = CapSense_BUTTON27_SNS0_RAW0_VALUE;
 1230              		.loc 1 451 0
 1231 05ae 354B     		ldr	r3, .L106+68
 1232 05b0 E35A     		ldrh	r3, [r4, r3]
 1233 05b2 EB86     		strh	r3, [r5, #54]
 452:main.c        ****             Touch.channel_raw[28] = CapSense_BUTTON28_SNS0_RAW0_VALUE;
 1234              		.loc 1 452 0
 1235 05b4 FF23     		movs	r3, #255
 1236 05b6 9B00     		lsls	r3, r3, #2
 1237 05b8 E35A     		ldrh	r3, [r4, r3]
 1238 05ba 2B87     		strh	r3, [r5, #56]
 453:main.c        ****             Touch.channel_raw[29] = CapSense_BUTTON29_SNS0_RAW0_VALUE;
 1239              		.loc 1 453 0
 1240 05bc 324B     		ldr	r3, .L106+72
 1241 05be E35A     		ldrh	r3, [r4, r3]
 1242 05c0 6B87     		strh	r3, [r5, #58]
 454:main.c        ****             Touch.channel_raw[30] = CapSense_BUTTON30_SNS0_RAW0_VALUE;
 1243              		.loc 1 454 0
 1244 05c2 8223     		movs	r3, #130
 1245 05c4 DB00     		lsls	r3, r3, #3
 1246 05c6 E35A     		ldrh	r3, [r4, r3]
 1247 05c8 AB87     		strh	r3, [r5, #60]
 455:main.c        ****             Touch.channel_raw[31] = CapSense_BUTTON31_SNS0_RAW0_VALUE;
 1248              		.loc 1 455 0
 1249 05ca 304B     		ldr	r3, .L106+76
 1250 05cc E35A     		ldrh	r3, [r4, r3]
 1251 05ce EB87     		strh	r3, [r5, #62]
 456:main.c        ****             Touch.channel_raw[32] = CapSense_BUTTON32_SNS0_RAW0_VALUE;
 1252              		.loc 1 456 0
 1253 05d0 A25A     		ldrh	r2, [r4, r2]
 1254 05d2 AB1C     		adds	r3, r5, #2
 1255 05d4 DA87     		strh	r2, [r3, #62]
 457:main.c        ****             Touch.channel_raw[33] = CapSense_BUTTON33_SNS0_RAW0_VALUE;
 1256              		.loc 1 457 0
 1257 05d6 615A     		ldrh	r1, [r4, r1]
 1258 05d8 2A1D     		adds	r2, r5, #4
 1259 05da D187     		strh	r1, [r2, #62]
 458:main.c        **** 
 1260              		.loc 1 458 0
 1261 05dc 8721     		movs	r1, #135
 1262 05de C900     		lsls	r1, r1, #3
 1263 05e0 615A     		ldrh	r1, [r4, r1]
 1264 05e2 AA1D     		adds	r2, r5, #6
 1265 05e4 D187     		strh	r1, [r2, #62]
 1266              	.LVL163:
 1267 05e6 0022     		movs	r2, #0
ARM GAS  C:\Users\Qinh\AppData\Local\Temp\ccYrTOvs.s 			page 40


 1268              	.LVL164:
 1269              	.L58:
 1270              	.LBB2:
 461:main.c        ****             }
 1271              		.loc 1 461 0 discriminator 3
 1272 05e8 0198     		ldr	r0, [sp, #4]
 1273 05ea 1988     		ldrh	r1, [r3]
 1274 05ec 805C     		ldrb	r0, [r0, r2]
 1275 05ee 0132     		adds	r2, r2, #1
 1276              	.LVL165:
 1277 05f0 8140     		lsls	r1, r1, r0
 1278 05f2 1980     		strh	r1, [r3]
 1279 05f4 0233     		adds	r3, r3, #2
 460:main.c        ****                 Touch.channel_raw[i] = Touch.channel_raw[i] << resolution_zoom_map[i];
 1280              		.loc 1 460 0 discriminator 3
 1281 05f6 222A     		cmp	r2, #34
 1282 05f8 F6D1     		bne	.L58
 1283 05fa 0027     		movs	r7, #0
 1284              	.L59:
 1285              	.LVL166:
 1286              	.LBE2:
 1287              	.LBB3:
 464:main.c        ****             }
 1288              		.loc 1 464 0 discriminator 3
 1289 05fc E85D     		ldrb	r0, [r5, r7]
 1290 05fe 0137     		adds	r7, r7, #1
 1291              	.LVL167:
 1292 0600 FFF7FEFF 		bl	UART_1_SpiUartWriteTxData
 1293              	.LVL168:
 463:main.c        ****                 UART_1_UartPutChar(Touch.data[i]);
 1294              		.loc 1 463 0 discriminator 3
 1295 0604 462F     		cmp	r7, #70
 1296 0606 F9D1     		bne	.L59
 1297              	.LBE3:
 469:main.c        ****                     {
 1298              		.loc 1 469 0
 1299 0608 FFF7FEFF 		bl	CapSense_IsAnyWidgetActive
 1300              	.LVL169:
 1301 060c 0028     		cmp	r0, #0
 1302 060e 02D0     		beq	.L103
 472:main.c        ****                     }
 1303              		.loc 1 472 0
 1304 0610 0026     		movs	r6, #0
 1305              	.LVL170:
 1306              	.L102:
 522:main.c        ****                 deviceScanMode = FAST_SCAN_MODE; 
 1307              		.loc 1 522 0
 1308 0612 0125     		movs	r5, #1
 1309 0614 9FE5     		b	.L16
 1310              	.LVL171:
 1311              	.L103:
 479:main.c        ****                         
 1312              		.loc 1 479 0
 1313 0616 0136     		adds	r6, r6, #1
 1314              	.LVL172:
 1315 0618 B6B2     		uxth	r6, r6
 1316              	.LVL173:
ARM GAS  C:\Users\Qinh\AppData\Local\Temp\ccYrTOvs.s 			page 41


 522:main.c        ****                 deviceScanMode = FAST_SCAN_MODE; 
 1317              		.loc 1 522 0
 1318 061a 0125     		movs	r5, #1
 484:main.c        ****                         {   
 1319              		.loc 1 484 0
 1320 061c 952E     		cmp	r6, #149
 1321 061e 00D8     		bhi	.LCB1105
 1322 0620 99E5     		b	.L16	@long jump
 1323              	.LCB1105:
 487:main.c        ****                             
 1324              		.loc 1 487 0
 1325 0622 074B     		ldr	r3, .L106
 1326 0624 DA68     		ldr	r2, [r3, #12]
 1327 0626 1A4B     		ldr	r3, .L106+80
 1328 0628 1A60     		str	r2, [r3]
 1329              	.LVL174:
 1330 062a 94E5     		b	.L16
 1331              	.LVL175:
 1332              	.L22:
 528:main.c        ****                 
 1333              		.loc 1 528 0
 1334 062c FFF7FEFF 		bl	EnterDeepSleepLowPowerMode
 1335              	.LVL176:
 534:main.c        ****                 {
 1336              		.loc 1 534 0
 1337 0630 034B     		ldr	r3, .L106
 1338 0632 1A79     		ldrb	r2, [r3, #4]
 1339 0634 002A     		cmp	r2, #0
 1340 0636 00D1     		bne	.LCB1126
 1341 0638 8DE5     		b	.L16	@long jump
 1342              	.LCB1126:
 1343              	.LVL177:
 539:main.c        ****                 }
 1344              		.loc 1 539 0
 1345 063a 0022     		movs	r2, #0
 1346 063c 1A71     		strb	r2, [r3, #4]
 1347 063e E8E7     		b	.L102
 1348              	.L107:
 1349              		.align	2
 1350              	.L106:
 1351 0640 00000000 		.word	.LANCHOR0
 1352 0644 EE020000 		.word	750
 1353 0648 00000000 		.word	Touch
 1354 064c 24040000 		.word	1060
 1355 0650 2E040000 		.word	1070
 1356 0654 02030000 		.word	770
 1357 0658 16030000 		.word	790
 1358 065c 2A030000 		.word	810
 1359 0660 3E030000 		.word	830
 1360 0664 52030000 		.word	850
 1361 0668 66030000 		.word	870
 1362 066c 7A030000 		.word	890
 1363 0670 8E030000 		.word	910
 1364 0674 A2030000 		.word	930
 1365 0678 B6030000 		.word	950
 1366 067c CA030000 		.word	970
 1367 0680 DE030000 		.word	990
ARM GAS  C:\Users\Qinh\AppData\Local\Temp\ccYrTOvs.s 			page 42


 1368 0684 F2030000 		.word	1010
 1369 0688 06040000 		.word	1030
 1370 068c 1A040000 		.word	1050
 1371 0690 00000000 		.word	.LANCHOR1
 1372              		.cfi_endproc
 1373              	.LFE33:
 1374              		.size	main, .-main
 1375              		.comm	resolution_zoom_map,34,1
 1376              		.global	watchdogMatchValue
 1377              		.global	wdtInterruptOccured
 1378              		.global	wdtMatchValSlowMode
 1379              		.global	wdtMatchValFastMode
 1380              		.global	interruptState
 1381              		.comm	Touch,70,2
 1382              		.comm	vofa1,4,4
 1383              		.data
 1384              		.align	2
 1385              		.set	.LANCHOR1,. + 0
 1386              		.type	watchdogMatchValue, %object
 1387              		.size	watchdogMatchValue, 4
 1388              	watchdogMatchValue:
 1389 0000 B0040000 		.word	1200
 1390              		.bss
 1391              		.align	2
 1392              		.set	.LANCHOR0,. + 0
 1393              		.type	interruptState, %object
 1394              		.size	interruptState, 4
 1395              	interruptState:
 1396 0000 00000000 		.space	4
 1397              		.type	wdtInterruptOccured, %object
 1398              		.size	wdtInterruptOccured, 1
 1399              	wdtInterruptOccured:
 1400 0004 00       		.space	1
 1401 0005 000000   		.space	3
 1402              		.type	wdtMatchValFastMode, %object
 1403              		.size	wdtMatchValFastMode, 4
 1404              	wdtMatchValFastMode:
 1405 0008 00000000 		.space	4
 1406              		.type	wdtMatchValSlowMode, %object
 1407              		.size	wdtMatchValSlowMode, 4
 1408              	wdtMatchValSlowMode:
 1409 000c 00000000 		.space	4
 1410              		.text
 1411              	.Letext0:
 1412              		.file 2 "c:\\program files (x86)\\cypress\\psoc creator\\4.4\\psoc creator\\import\\gnu\\arm\\5.4.
 1413              		.file 3 "c:\\program files (x86)\\cypress\\psoc creator\\4.4\\psoc creator\\import\\gnu\\arm\\5.4.
 1414              		.file 4 "Generated_Source\\PSoC4/cytypes.h"
 1415              		.file 5 "Generated_Source\\PSoC4/CapSense_Configuration.h"
 1416              		.file 6 "Generated_Source\\PSoC4/CapSense_Structure.h"
 1417              		.file 7 "Generated_Source\\PSoC4/CyLib.h"
 1418              		.file 8 "Generated_Source\\PSoC4/CyLFClk.h"
 1419              		.file 9 "Generated_Source\\PSoC4/UART_1_SPI_UART.h"
 1420              		.file 10 "Generated_Source\\PSoC4/UART_1.h"
 1421              		.file 11 "Generated_Source\\PSoC4/CapSense_Control.h"
 1422              		.file 12 "Generated_Source\\PSoC4/CapSense_Sensing.h"
 1423              		.file 13 "Generated_Source\\PSoC4/CapSense_SensingCSD_LL.h"
 1424              		.file 14 "Generated_Source\\PSoC4/cyPm.h"
ARM GAS  C:\Users\Qinh\AppData\Local\Temp\ccYrTOvs.s 			page 43

