ARM GAS  C:\Users\Qinh\AppData\Local\Temp\ccpFJODy.s 			page 1


   1              		.syntax unified
   2              		.cpu cortex-m0plus
   3              		.fpu softvfp
   4              		.eabi_attribute 20, 1
   5              		.eabi_attribute 21, 1
   6              		.eabi_attribute 23, 3
   7              		.eabi_attribute 24, 1
   8              		.eabi_attribute 25, 1
   9              		.eabi_attribute 26, 1
  10              		.eabi_attribute 30, 4
  11              		.eabi_attribute 34, 0
  12              		.eabi_attribute 18, 4
  13              		.thumb
  14              		.syntax unified
  15              		.file	"UART_1_SPI_UART_INT.c"
  16              		.text
  17              	.Ltext0:
  18              		.cfi_sections	.debug_frame
  19              		.section	.text.UART_1_SPI_UART_ISR,"ax",%progbits
  20              		.align	1
  21              		.global	UART_1_SPI_UART_ISR
  22              		.code	16
  23              		.thumb_func
  24              		.type	UART_1_SPI_UART_ISR, %function
  25              	UART_1_SPI_UART_ISR:
  26              	.LFB1:
  27              		.file 1 "Generated_Source\\PSoC4\\UART_1_SPI_UART_INT.c"
   1:Generated_Source\PSoC4/UART_1_SPI_UART_INT.c **** /***************************************************************************//**
   2:Generated_Source\PSoC4/UART_1_SPI_UART_INT.c **** * \file UART_1_SPI_UART_INT.c
   3:Generated_Source\PSoC4/UART_1_SPI_UART_INT.c **** * \version 4.0
   4:Generated_Source\PSoC4/UART_1_SPI_UART_INT.c **** *
   5:Generated_Source\PSoC4/UART_1_SPI_UART_INT.c **** * \brief
   6:Generated_Source\PSoC4/UART_1_SPI_UART_INT.c **** *  This file provides the source code to the Interrupt Service Routine for
   7:Generated_Source\PSoC4/UART_1_SPI_UART_INT.c **** *  the SCB Component in SPI and UART modes.
   8:Generated_Source\PSoC4/UART_1_SPI_UART_INT.c **** *
   9:Generated_Source\PSoC4/UART_1_SPI_UART_INT.c **** * Note:
  10:Generated_Source\PSoC4/UART_1_SPI_UART_INT.c **** *
  11:Generated_Source\PSoC4/UART_1_SPI_UART_INT.c **** ********************************************************************************
  12:Generated_Source\PSoC4/UART_1_SPI_UART_INT.c **** * \copyright
  13:Generated_Source\PSoC4/UART_1_SPI_UART_INT.c **** * Copyright 2013-2017, Cypress Semiconductor Corporation.  All rights reserved.
  14:Generated_Source\PSoC4/UART_1_SPI_UART_INT.c **** * You may use this file only in accordance with the license, terms, conditions,
  15:Generated_Source\PSoC4/UART_1_SPI_UART_INT.c **** * disclaimers, and limitations in the end user license agreement accompanying
  16:Generated_Source\PSoC4/UART_1_SPI_UART_INT.c **** * the software package with which this file was provided.
  17:Generated_Source\PSoC4/UART_1_SPI_UART_INT.c **** *******************************************************************************/
  18:Generated_Source\PSoC4/UART_1_SPI_UART_INT.c **** 
  19:Generated_Source\PSoC4/UART_1_SPI_UART_INT.c **** #include "UART_1_PVT.h"
  20:Generated_Source\PSoC4/UART_1_SPI_UART_INT.c **** #include "UART_1_SPI_UART_PVT.h"
  21:Generated_Source\PSoC4/UART_1_SPI_UART_INT.c **** #include "cyapicallbacks.h"
  22:Generated_Source\PSoC4/UART_1_SPI_UART_INT.c **** 
  23:Generated_Source\PSoC4/UART_1_SPI_UART_INT.c **** #if (UART_1_SCB_IRQ_INTERNAL)
  24:Generated_Source\PSoC4/UART_1_SPI_UART_INT.c **** /*******************************************************************************
  25:Generated_Source\PSoC4/UART_1_SPI_UART_INT.c **** * Function Name: UART_1_SPI_UART_ISR
  26:Generated_Source\PSoC4/UART_1_SPI_UART_INT.c **** ****************************************************************************//**
  27:Generated_Source\PSoC4/UART_1_SPI_UART_INT.c **** *
  28:Generated_Source\PSoC4/UART_1_SPI_UART_INT.c **** *  Handles the Interrupt Service Routine for the SCB SPI or UART modes.
  29:Generated_Source\PSoC4/UART_1_SPI_UART_INT.c **** *
  30:Generated_Source\PSoC4/UART_1_SPI_UART_INT.c **** *******************************************************************************/
ARM GAS  C:\Users\Qinh\AppData\Local\Temp\ccpFJODy.s 			page 2


  31:Generated_Source\PSoC4/UART_1_SPI_UART_INT.c **** CY_ISR(UART_1_SPI_UART_ISR)
  32:Generated_Source\PSoC4/UART_1_SPI_UART_INT.c **** {
  28              		.loc 1 32 0
  29              		.cfi_startproc
  30              		@ args = 0, pretend = 0, frame = 0
  31              		@ frame_needed = 0, uses_anonymous_args = 0
  33:Generated_Source\PSoC4/UART_1_SPI_UART_INT.c **** #if (UART_1_INTERNAL_RX_SW_BUFFER_CONST)
  34:Generated_Source\PSoC4/UART_1_SPI_UART_INT.c ****     uint32 locHead;
  35:Generated_Source\PSoC4/UART_1_SPI_UART_INT.c **** #endif /* (UART_1_INTERNAL_RX_SW_BUFFER_CONST) */
  36:Generated_Source\PSoC4/UART_1_SPI_UART_INT.c **** 
  37:Generated_Source\PSoC4/UART_1_SPI_UART_INT.c **** #if (UART_1_INTERNAL_TX_SW_BUFFER_CONST)
  38:Generated_Source\PSoC4/UART_1_SPI_UART_INT.c ****     uint32 locTail;
  39:Generated_Source\PSoC4/UART_1_SPI_UART_INT.c **** #endif /* (UART_1_INTERNAL_TX_SW_BUFFER_CONST) */
  40:Generated_Source\PSoC4/UART_1_SPI_UART_INT.c **** 
  41:Generated_Source\PSoC4/UART_1_SPI_UART_INT.c **** #ifdef UART_1_SPI_UART_ISR_ENTRY_CALLBACK
  42:Generated_Source\PSoC4/UART_1_SPI_UART_INT.c ****     UART_1_SPI_UART_ISR_EntryCallback();
  43:Generated_Source\PSoC4/UART_1_SPI_UART_INT.c **** #endif /* UART_1_SPI_UART_ISR_ENTRY_CALLBACK */
  44:Generated_Source\PSoC4/UART_1_SPI_UART_INT.c **** 
  45:Generated_Source\PSoC4/UART_1_SPI_UART_INT.c ****     if (NULL != UART_1_customIntrHandler)
  32              		.loc 1 45 0
  33 0000 154B     		ldr	r3, .L17
  32:Generated_Source\PSoC4/UART_1_SPI_UART_INT.c **** #if (UART_1_INTERNAL_RX_SW_BUFFER_CONST)
  34              		.loc 1 32 0
  35 0002 70B5     		push	{r4, r5, r6, lr}
  36              		.cfi_def_cfa_offset 16
  37              		.cfi_offset 4, -16
  38              		.cfi_offset 5, -12
  39              		.cfi_offset 6, -8
  40              		.cfi_offset 14, -4
  41              		.loc 1 45 0
  42 0004 1B68     		ldr	r3, [r3]
  43 0006 002B     		cmp	r3, #0
  44 0008 00D0     		beq	.L2
  46:Generated_Source\PSoC4/UART_1_SPI_UART_INT.c ****     {
  47:Generated_Source\PSoC4/UART_1_SPI_UART_INT.c ****         UART_1_customIntrHandler();
  45              		.loc 1 47 0
  46 000a 9847     		blx	r3
  47              	.LVL0:
  48              	.L2:
  48:Generated_Source\PSoC4/UART_1_SPI_UART_INT.c ****     }
  49:Generated_Source\PSoC4/UART_1_SPI_UART_INT.c **** 
  50:Generated_Source\PSoC4/UART_1_SPI_UART_INT.c ****     #if(UART_1_CHECK_SPI_WAKE_ENABLE)
  51:Generated_Source\PSoC4/UART_1_SPI_UART_INT.c ****     {
  52:Generated_Source\PSoC4/UART_1_SPI_UART_INT.c ****         /* Clear SPI wakeup source */
  53:Generated_Source\PSoC4/UART_1_SPI_UART_INT.c ****         UART_1_ClearSpiExtClkInterruptSource(UART_1_INTR_SPI_EC_WAKE_UP);
  54:Generated_Source\PSoC4/UART_1_SPI_UART_INT.c ****     }
  55:Generated_Source\PSoC4/UART_1_SPI_UART_INT.c ****     #endif
  56:Generated_Source\PSoC4/UART_1_SPI_UART_INT.c **** 
  57:Generated_Source\PSoC4/UART_1_SPI_UART_INT.c ****     #if (UART_1_CHECK_RX_SW_BUFFER)
  58:Generated_Source\PSoC4/UART_1_SPI_UART_INT.c ****     {
  59:Generated_Source\PSoC4/UART_1_SPI_UART_INT.c ****         if (UART_1_CHECK_INTR_RX_MASKED(UART_1_INTR_RX_NOT_EMPTY))
  60:Generated_Source\PSoC4/UART_1_SPI_UART_INT.c ****         {
  61:Generated_Source\PSoC4/UART_1_SPI_UART_INT.c ****             do
  62:Generated_Source\PSoC4/UART_1_SPI_UART_INT.c ****             {
  63:Generated_Source\PSoC4/UART_1_SPI_UART_INT.c ****                 /* Move local head index */
  64:Generated_Source\PSoC4/UART_1_SPI_UART_INT.c ****                 locHead = (UART_1_rxBufferHead + 1u);
  65:Generated_Source\PSoC4/UART_1_SPI_UART_INT.c **** 
ARM GAS  C:\Users\Qinh\AppData\Local\Temp\ccpFJODy.s 			page 3


  66:Generated_Source\PSoC4/UART_1_SPI_UART_INT.c ****                 /* Adjust local head index */
  67:Generated_Source\PSoC4/UART_1_SPI_UART_INT.c ****                 if (UART_1_INTERNAL_RX_BUFFER_SIZE == locHead)
  68:Generated_Source\PSoC4/UART_1_SPI_UART_INT.c ****                 {
  69:Generated_Source\PSoC4/UART_1_SPI_UART_INT.c ****                     locHead = 0u;
  70:Generated_Source\PSoC4/UART_1_SPI_UART_INT.c ****                 }
  71:Generated_Source\PSoC4/UART_1_SPI_UART_INT.c **** 
  72:Generated_Source\PSoC4/UART_1_SPI_UART_INT.c ****                 if (locHead == UART_1_rxBufferTail)
  73:Generated_Source\PSoC4/UART_1_SPI_UART_INT.c ****                 {
  74:Generated_Source\PSoC4/UART_1_SPI_UART_INT.c ****                     #if (UART_1_CHECK_UART_RTS_CONTROL_FLOW)
  75:Generated_Source\PSoC4/UART_1_SPI_UART_INT.c ****                     {
  76:Generated_Source\PSoC4/UART_1_SPI_UART_INT.c ****                         /* There is no space in the software buffer - disable the
  77:Generated_Source\PSoC4/UART_1_SPI_UART_INT.c ****                         * RX Not Empty interrupt source. The data elements are
  78:Generated_Source\PSoC4/UART_1_SPI_UART_INT.c ****                         * still being received into the RX FIFO until the RTS signal
  79:Generated_Source\PSoC4/UART_1_SPI_UART_INT.c ****                         * stops the transmitter. After the data element is read from the
  80:Generated_Source\PSoC4/UART_1_SPI_UART_INT.c ****                         * buffer, the RX Not Empty interrupt source is enabled to
  81:Generated_Source\PSoC4/UART_1_SPI_UART_INT.c ****                         * move the next data element in the software buffer.
  82:Generated_Source\PSoC4/UART_1_SPI_UART_INT.c ****                         */
  83:Generated_Source\PSoC4/UART_1_SPI_UART_INT.c ****                         UART_1_INTR_RX_MASK_REG &= ~UART_1_INTR_RX_NOT_EMPTY;
  84:Generated_Source\PSoC4/UART_1_SPI_UART_INT.c ****                         break;
  85:Generated_Source\PSoC4/UART_1_SPI_UART_INT.c ****                     }
  86:Generated_Source\PSoC4/UART_1_SPI_UART_INT.c ****                     #else
  87:Generated_Source\PSoC4/UART_1_SPI_UART_INT.c ****                     {
  88:Generated_Source\PSoC4/UART_1_SPI_UART_INT.c ****                         /* Overflow: through away received data element */
  89:Generated_Source\PSoC4/UART_1_SPI_UART_INT.c ****                         (void) UART_1_RX_FIFO_RD_REG;
  90:Generated_Source\PSoC4/UART_1_SPI_UART_INT.c ****                         UART_1_rxBufferOverflow = (uint8) UART_1_INTR_RX_OVERFLOW;
  91:Generated_Source\PSoC4/UART_1_SPI_UART_INT.c ****                     }
  92:Generated_Source\PSoC4/UART_1_SPI_UART_INT.c ****                     #endif
  93:Generated_Source\PSoC4/UART_1_SPI_UART_INT.c ****                 }
  94:Generated_Source\PSoC4/UART_1_SPI_UART_INT.c ****                 else
  95:Generated_Source\PSoC4/UART_1_SPI_UART_INT.c ****                 {
  96:Generated_Source\PSoC4/UART_1_SPI_UART_INT.c ****                     /* Store received data */
  97:Generated_Source\PSoC4/UART_1_SPI_UART_INT.c ****                     UART_1_PutWordInRxBuffer(locHead, UART_1_RX_FIFO_RD_REG);
  98:Generated_Source\PSoC4/UART_1_SPI_UART_INT.c **** 
  99:Generated_Source\PSoC4/UART_1_SPI_UART_INT.c ****                     /* Move head index */
 100:Generated_Source\PSoC4/UART_1_SPI_UART_INT.c ****                     UART_1_rxBufferHead = locHead;
 101:Generated_Source\PSoC4/UART_1_SPI_UART_INT.c ****                 }
 102:Generated_Source\PSoC4/UART_1_SPI_UART_INT.c ****             }
 103:Generated_Source\PSoC4/UART_1_SPI_UART_INT.c ****             while(0u != UART_1_GET_RX_FIFO_ENTRIES);
 104:Generated_Source\PSoC4/UART_1_SPI_UART_INT.c **** 
 105:Generated_Source\PSoC4/UART_1_SPI_UART_INT.c ****             UART_1_ClearRxInterruptSource(UART_1_INTR_RX_NOT_EMPTY);
 106:Generated_Source\PSoC4/UART_1_SPI_UART_INT.c ****         }
 107:Generated_Source\PSoC4/UART_1_SPI_UART_INT.c ****     }
 108:Generated_Source\PSoC4/UART_1_SPI_UART_INT.c ****     #endif
 109:Generated_Source\PSoC4/UART_1_SPI_UART_INT.c **** 
 110:Generated_Source\PSoC4/UART_1_SPI_UART_INT.c **** 
 111:Generated_Source\PSoC4/UART_1_SPI_UART_INT.c ****     #if (UART_1_CHECK_TX_SW_BUFFER)
 112:Generated_Source\PSoC4/UART_1_SPI_UART_INT.c ****     {
 113:Generated_Source\PSoC4/UART_1_SPI_UART_INT.c ****         if (UART_1_CHECK_INTR_TX_MASKED(UART_1_INTR_TX_NOT_FULL))
  49              		.loc 1 113 0
  50 000c 134B     		ldr	r3, .L17+4
  51 000e 1B68     		ldr	r3, [r3]
  52 0010 9B07     		lsls	r3, r3, #30
  53 0012 1FD5     		bpl	.L1
 114:Generated_Source\PSoC4/UART_1_SPI_UART_INT.c ****         {
 115:Generated_Source\PSoC4/UART_1_SPI_UART_INT.c ****             do
 116:Generated_Source\PSoC4/UART_1_SPI_UART_INT.c ****             {
 117:Generated_Source\PSoC4/UART_1_SPI_UART_INT.c ****                 /* Check for room in TX software buffer */
ARM GAS  C:\Users\Qinh\AppData\Local\Temp\ccpFJODy.s 			page 4


 118:Generated_Source\PSoC4/UART_1_SPI_UART_INT.c ****                 if (UART_1_txBufferHead != UART_1_txBufferTail)
 119:Generated_Source\PSoC4/UART_1_SPI_UART_INT.c ****                 {
 120:Generated_Source\PSoC4/UART_1_SPI_UART_INT.c ****                     /* Move local tail index */
 121:Generated_Source\PSoC4/UART_1_SPI_UART_INT.c ****                     locTail = (UART_1_txBufferTail + 1u);
 122:Generated_Source\PSoC4/UART_1_SPI_UART_INT.c **** 
 123:Generated_Source\PSoC4/UART_1_SPI_UART_INT.c ****                     /* Adjust local tail index */
 124:Generated_Source\PSoC4/UART_1_SPI_UART_INT.c ****                     if (UART_1_TX_BUFFER_SIZE == locTail)
 125:Generated_Source\PSoC4/UART_1_SPI_UART_INT.c ****                     {
 126:Generated_Source\PSoC4/UART_1_SPI_UART_INT.c ****                         locTail = 0u;
 127:Generated_Source\PSoC4/UART_1_SPI_UART_INT.c ****                     }
 128:Generated_Source\PSoC4/UART_1_SPI_UART_INT.c **** 
 129:Generated_Source\PSoC4/UART_1_SPI_UART_INT.c ****                     /* Put data into TX FIFO */
 130:Generated_Source\PSoC4/UART_1_SPI_UART_INT.c ****                     UART_1_TX_FIFO_WR_REG = UART_1_GetWordFromTxBuffer(locTail);
 131:Generated_Source\PSoC4/UART_1_SPI_UART_INT.c **** 
 132:Generated_Source\PSoC4/UART_1_SPI_UART_INT.c ****                     /* Move tail index */
 133:Generated_Source\PSoC4/UART_1_SPI_UART_INT.c ****                     UART_1_txBufferTail = locTail;
 134:Generated_Source\PSoC4/UART_1_SPI_UART_INT.c ****                 }
 135:Generated_Source\PSoC4/UART_1_SPI_UART_INT.c ****                 else
 136:Generated_Source\PSoC4/UART_1_SPI_UART_INT.c ****                 {
 137:Generated_Source\PSoC4/UART_1_SPI_UART_INT.c ****                     /* TX software buffer is empty: complete transfer */
 138:Generated_Source\PSoC4/UART_1_SPI_UART_INT.c ****                     UART_1_DISABLE_INTR_TX(UART_1_INTR_TX_NOT_FULL);
 139:Generated_Source\PSoC4/UART_1_SPI_UART_INT.c ****                     break;
 140:Generated_Source\PSoC4/UART_1_SPI_UART_INT.c ****                 }
 141:Generated_Source\PSoC4/UART_1_SPI_UART_INT.c ****             }
 142:Generated_Source\PSoC4/UART_1_SPI_UART_INT.c ****             while (UART_1_SPI_UART_FIFO_SIZE != UART_1_GET_TX_FIFO_ENTRIES);
  54              		.loc 1 142 0
  55 0014 1F20     		movs	r0, #31
 118:Generated_Source\PSoC4/UART_1_SPI_UART_INT.c ****                 {
  56              		.loc 1 118 0
  57 0016 124C     		ldr	r4, .L17+8
  58 0018 124A     		ldr	r2, .L17+12
  59              	.L12:
  60 001a 2168     		ldr	r1, [r4]
  61 001c 1368     		ldr	r3, [r2]
  62 001e 9942     		cmp	r1, r3
  63 0020 10D0     		beq	.L4
 121:Generated_Source\PSoC4/UART_1_SPI_UART_INT.c **** 
  64              		.loc 1 121 0
  65 0022 1368     		ldr	r3, [r2]
  66 0024 0133     		adds	r3, r3, #1
  67              	.LVL1:
 124:Generated_Source\PSoC4/UART_1_SPI_UART_INT.c ****                     {
  68              		.loc 1 124 0
  69 0026 462B     		cmp	r3, #70
  70 0028 00D1     		bne	.L5
 126:Generated_Source\PSoC4/UART_1_SPI_UART_INT.c ****                     }
  71              		.loc 1 126 0
  72 002a 0023     		movs	r3, #0
  73              	.LVL2:
  74              	.L5:
 130:Generated_Source\PSoC4/UART_1_SPI_UART_INT.c **** 
  75              		.loc 1 130 0
  76 002c 0E49     		ldr	r1, .L17+16
  77 002e 0F4D     		ldr	r5, .L17+20
  78 0030 C95C     		ldrb	r1, [r1, r3]
  79 0032 C9B2     		uxtb	r1, r1
  80 0034 2960     		str	r1, [r5]
ARM GAS  C:\Users\Qinh\AppData\Local\Temp\ccpFJODy.s 			page 5


 133:Generated_Source\PSoC4/UART_1_SPI_UART_INT.c ****                 }
  81              		.loc 1 133 0
  82 0036 1360     		str	r3, [r2]
  83              		.loc 1 142 0
  84 0038 0D4B     		ldr	r3, .L17+24
  85              	.LVL3:
  86 003a 1B68     		ldr	r3, [r3]
  87 003c 0340     		ands	r3, r0
  88 003e 082B     		cmp	r3, #8
  89 0040 EBD1     		bne	.L12
  90 0042 04E0     		b	.L7
  91              	.LVL4:
  92              	.L4:
 138:Generated_Source\PSoC4/UART_1_SPI_UART_INT.c ****                     break;
  93              		.loc 1 138 0
  94 0044 0221     		movs	r1, #2
  95 0046 0B4A     		ldr	r2, .L17+28
  96 0048 1368     		ldr	r3, [r2]
  97 004a 8B43     		bics	r3, r1
  98 004c 1360     		str	r3, [r2]
  99              	.L7:
 143:Generated_Source\PSoC4/UART_1_SPI_UART_INT.c **** 
 144:Generated_Source\PSoC4/UART_1_SPI_UART_INT.c ****             UART_1_ClearTxInterruptSource(UART_1_INTR_TX_NOT_FULL);
 100              		.loc 1 144 0
 101 004e 0222     		movs	r2, #2
 102 0050 094B     		ldr	r3, .L17+32
 103 0052 1A60     		str	r2, [r3]
 104              	.L1:
 145:Generated_Source\PSoC4/UART_1_SPI_UART_INT.c ****         }
 146:Generated_Source\PSoC4/UART_1_SPI_UART_INT.c ****     }
 147:Generated_Source\PSoC4/UART_1_SPI_UART_INT.c ****     #endif
 148:Generated_Source\PSoC4/UART_1_SPI_UART_INT.c **** 
 149:Generated_Source\PSoC4/UART_1_SPI_UART_INT.c **** #ifdef UART_1_SPI_UART_ISR_EXIT_CALLBACK
 150:Generated_Source\PSoC4/UART_1_SPI_UART_INT.c ****     UART_1_SPI_UART_ISR_ExitCallback();
 151:Generated_Source\PSoC4/UART_1_SPI_UART_INT.c **** #endif /* UART_1_SPI_UART_ISR_EXIT_CALLBACK */
 152:Generated_Source\PSoC4/UART_1_SPI_UART_INT.c **** 
 153:Generated_Source\PSoC4/UART_1_SPI_UART_INT.c **** }
 105              		.loc 1 153 0
 106              		@ sp needed
 107 0054 70BD     		pop	{r4, r5, r6, pc}
 108              	.L18:
 109 0056 C046     		.align	2
 110              	.L17:
 111 0058 00000000 		.word	UART_1_customIntrHandler
 112 005c 8C0F0940 		.word	1074335628
 113 0060 00000000 		.word	UART_1_txBufferHead
 114 0064 00000000 		.word	UART_1_txBufferTail
 115 0068 00000000 		.word	UART_1_txBufferInternal
 116 006c 40020940 		.word	1074332224
 117 0070 08020940 		.word	1074332168
 118 0074 880F0940 		.word	1074335624
 119 0078 800F0940 		.word	1074335616
 120              		.cfi_endproc
 121              	.LFE1:
 122              		.size	UART_1_SPI_UART_ISR, .-UART_1_SPI_UART_ISR
 123              		.text
 124              	.Letext0:
ARM GAS  C:\Users\Qinh\AppData\Local\Temp\ccpFJODy.s 			page 6


 125              		.file 2 "Generated_Source\\PSoC4/cytypes.h"
 126              		.file 3 "Generated_Source\\PSoC4\\UART_1_PVT.h"
 127              		.file 4 "Generated_Source\\PSoC4\\UART_1_SPI_UART_PVT.h"